ARM GAS  /tmp/ccOpRQ1g.s 			page 1


   1              		.cpu cortex-m7
   2              		.eabi_attribute 28, 1
   3              		.eabi_attribute 20, 1
   4              		.eabi_attribute 21, 1
   5              		.eabi_attribute 23, 3
   6              		.eabi_attribute 24, 1
   7              		.eabi_attribute 25, 1
   8              		.eabi_attribute 26, 1
   9              		.eabi_attribute 30, 2
  10              		.eabi_attribute 34, 1
  11              		.eabi_attribute 18, 4
  12              		.file	"usbh_ctlreq.c"
  13              		.text
  14              	.Ltext0:
  15              		.cfi_sections	.debug_frame
  16              		.section	.text.USBH_GetNextDesc,"ax",%progbits
  17              		.align	1
  18              		.p2align 2,,3
  19              		.global	USBH_GetNextDesc
  20              		.arch armv7e-m
  21              		.syntax unified
  22              		.thumb
  23              		.thumb_func
  24              		.fpu fpv5-d16
  26              	USBH_GetNextDesc:
  27              	.LVL0:
  28              	.LFB352:
  29              		.file 1 "./Libraries/STM32_USB_Host_Library/Core/Src/usbh_ctlreq.c"
   1:./Libraries/STM32_USB_Host_Library/Core/Src/usbh_ctlreq.c **** /**
   2:./Libraries/STM32_USB_Host_Library/Core/Src/usbh_ctlreq.c ****   ******************************************************************************
   3:./Libraries/STM32_USB_Host_Library/Core/Src/usbh_ctlreq.c ****   * @file    usbh_ctlreq.c
   4:./Libraries/STM32_USB_Host_Library/Core/Src/usbh_ctlreq.c ****   * @author  MCD Application Team
   5:./Libraries/STM32_USB_Host_Library/Core/Src/usbh_ctlreq.c ****   * @brief   This file implements the control requests for device enumeration
   6:./Libraries/STM32_USB_Host_Library/Core/Src/usbh_ctlreq.c ****   ******************************************************************************
   7:./Libraries/STM32_USB_Host_Library/Core/Src/usbh_ctlreq.c ****   * @attention
   8:./Libraries/STM32_USB_Host_Library/Core/Src/usbh_ctlreq.c ****   *
   9:./Libraries/STM32_USB_Host_Library/Core/Src/usbh_ctlreq.c ****   * <h2><center>&copy; Copyright (c) 2015 STMicroelectronics.
  10:./Libraries/STM32_USB_Host_Library/Core/Src/usbh_ctlreq.c ****   * All rights reserved.</center></h2>
  11:./Libraries/STM32_USB_Host_Library/Core/Src/usbh_ctlreq.c ****   *
  12:./Libraries/STM32_USB_Host_Library/Core/Src/usbh_ctlreq.c ****   * This software component is licensed by ST under Ultimate Liberty license
  13:./Libraries/STM32_USB_Host_Library/Core/Src/usbh_ctlreq.c ****   * SLA0044, the "License"; You may not use this file except in compliance with
  14:./Libraries/STM32_USB_Host_Library/Core/Src/usbh_ctlreq.c ****   * the License. You may obtain a copy of the License at:
  15:./Libraries/STM32_USB_Host_Library/Core/Src/usbh_ctlreq.c ****   *                      www.st.com/SLA0044
  16:./Libraries/STM32_USB_Host_Library/Core/Src/usbh_ctlreq.c ****   *
  17:./Libraries/STM32_USB_Host_Library/Core/Src/usbh_ctlreq.c ****   ******************************************************************************
  18:./Libraries/STM32_USB_Host_Library/Core/Src/usbh_ctlreq.c ****   */
  19:./Libraries/STM32_USB_Host_Library/Core/Src/usbh_ctlreq.c **** 
  20:./Libraries/STM32_USB_Host_Library/Core/Src/usbh_ctlreq.c **** /* Includes ------------------------------------------------------------------*/
  21:./Libraries/STM32_USB_Host_Library/Core/Src/usbh_ctlreq.c **** #include "usbh_ctlreq.h"
  22:./Libraries/STM32_USB_Host_Library/Core/Src/usbh_ctlreq.c **** 
  23:./Libraries/STM32_USB_Host_Library/Core/Src/usbh_ctlreq.c **** /** @addtogroup USBH_LIB
  24:./Libraries/STM32_USB_Host_Library/Core/Src/usbh_ctlreq.c **** * @{
  25:./Libraries/STM32_USB_Host_Library/Core/Src/usbh_ctlreq.c **** */
  26:./Libraries/STM32_USB_Host_Library/Core/Src/usbh_ctlreq.c **** 
  27:./Libraries/STM32_USB_Host_Library/Core/Src/usbh_ctlreq.c **** /** @addtogroup USBH_LIB_CORE
  28:./Libraries/STM32_USB_Host_Library/Core/Src/usbh_ctlreq.c **** * @{
  29:./Libraries/STM32_USB_Host_Library/Core/Src/usbh_ctlreq.c **** */
ARM GAS  /tmp/ccOpRQ1g.s 			page 2


  30:./Libraries/STM32_USB_Host_Library/Core/Src/usbh_ctlreq.c **** 
  31:./Libraries/STM32_USB_Host_Library/Core/Src/usbh_ctlreq.c **** /** @defgroup USBH_CTLREQ
  32:./Libraries/STM32_USB_Host_Library/Core/Src/usbh_ctlreq.c **** * @brief This file implements the standard requests for device enumeration
  33:./Libraries/STM32_USB_Host_Library/Core/Src/usbh_ctlreq.c **** * @{
  34:./Libraries/STM32_USB_Host_Library/Core/Src/usbh_ctlreq.c **** */
  35:./Libraries/STM32_USB_Host_Library/Core/Src/usbh_ctlreq.c **** 
  36:./Libraries/STM32_USB_Host_Library/Core/Src/usbh_ctlreq.c **** 
  37:./Libraries/STM32_USB_Host_Library/Core/Src/usbh_ctlreq.c **** /** @defgroup USBH_CTLREQ_Private_Defines
  38:./Libraries/STM32_USB_Host_Library/Core/Src/usbh_ctlreq.c **** * @{
  39:./Libraries/STM32_USB_Host_Library/Core/Src/usbh_ctlreq.c **** */
  40:./Libraries/STM32_USB_Host_Library/Core/Src/usbh_ctlreq.c **** /**
  41:./Libraries/STM32_USB_Host_Library/Core/Src/usbh_ctlreq.c **** * @}
  42:./Libraries/STM32_USB_Host_Library/Core/Src/usbh_ctlreq.c **** */
  43:./Libraries/STM32_USB_Host_Library/Core/Src/usbh_ctlreq.c **** 
  44:./Libraries/STM32_USB_Host_Library/Core/Src/usbh_ctlreq.c **** 
  45:./Libraries/STM32_USB_Host_Library/Core/Src/usbh_ctlreq.c **** /** @defgroup USBH_CTLREQ_Private_TypesDefinitions
  46:./Libraries/STM32_USB_Host_Library/Core/Src/usbh_ctlreq.c **** * @{
  47:./Libraries/STM32_USB_Host_Library/Core/Src/usbh_ctlreq.c **** */
  48:./Libraries/STM32_USB_Host_Library/Core/Src/usbh_ctlreq.c **** /**
  49:./Libraries/STM32_USB_Host_Library/Core/Src/usbh_ctlreq.c **** * @}
  50:./Libraries/STM32_USB_Host_Library/Core/Src/usbh_ctlreq.c **** */
  51:./Libraries/STM32_USB_Host_Library/Core/Src/usbh_ctlreq.c **** 
  52:./Libraries/STM32_USB_Host_Library/Core/Src/usbh_ctlreq.c **** 
  53:./Libraries/STM32_USB_Host_Library/Core/Src/usbh_ctlreq.c **** 
  54:./Libraries/STM32_USB_Host_Library/Core/Src/usbh_ctlreq.c **** /** @defgroup USBH_CTLREQ_Private_Macros
  55:./Libraries/STM32_USB_Host_Library/Core/Src/usbh_ctlreq.c **** * @{
  56:./Libraries/STM32_USB_Host_Library/Core/Src/usbh_ctlreq.c **** */
  57:./Libraries/STM32_USB_Host_Library/Core/Src/usbh_ctlreq.c **** /**
  58:./Libraries/STM32_USB_Host_Library/Core/Src/usbh_ctlreq.c **** * @}
  59:./Libraries/STM32_USB_Host_Library/Core/Src/usbh_ctlreq.c **** */
  60:./Libraries/STM32_USB_Host_Library/Core/Src/usbh_ctlreq.c **** 
  61:./Libraries/STM32_USB_Host_Library/Core/Src/usbh_ctlreq.c **** 
  62:./Libraries/STM32_USB_Host_Library/Core/Src/usbh_ctlreq.c **** /** @defgroup USBH_CTLREQ_Private_Variables
  63:./Libraries/STM32_USB_Host_Library/Core/Src/usbh_ctlreq.c **** * @{
  64:./Libraries/STM32_USB_Host_Library/Core/Src/usbh_ctlreq.c **** */
  65:./Libraries/STM32_USB_Host_Library/Core/Src/usbh_ctlreq.c **** /**
  66:./Libraries/STM32_USB_Host_Library/Core/Src/usbh_ctlreq.c **** * @}
  67:./Libraries/STM32_USB_Host_Library/Core/Src/usbh_ctlreq.c **** */
  68:./Libraries/STM32_USB_Host_Library/Core/Src/usbh_ctlreq.c **** 
  69:./Libraries/STM32_USB_Host_Library/Core/Src/usbh_ctlreq.c **** /** @defgroup USBH_CTLREQ_Private_FunctionPrototypes
  70:./Libraries/STM32_USB_Host_Library/Core/Src/usbh_ctlreq.c **** * @{
  71:./Libraries/STM32_USB_Host_Library/Core/Src/usbh_ctlreq.c **** */
  72:./Libraries/STM32_USB_Host_Library/Core/Src/usbh_ctlreq.c **** static USBH_StatusTypeDef USBH_HandleControl(USBH_HandleTypeDef *phost);
  73:./Libraries/STM32_USB_Host_Library/Core/Src/usbh_ctlreq.c **** 
  74:./Libraries/STM32_USB_Host_Library/Core/Src/usbh_ctlreq.c **** static void USBH_ParseDevDesc(USBH_DevDescTypeDef *dev_desc,
  75:./Libraries/STM32_USB_Host_Library/Core/Src/usbh_ctlreq.c ****                               uint8_t *buf, uint16_t length);
  76:./Libraries/STM32_USB_Host_Library/Core/Src/usbh_ctlreq.c **** 
  77:./Libraries/STM32_USB_Host_Library/Core/Src/usbh_ctlreq.c **** static void USBH_ParseCfgDesc(USBH_CfgDescTypeDef *cfg_desc,
  78:./Libraries/STM32_USB_Host_Library/Core/Src/usbh_ctlreq.c ****                               uint8_t *buf, uint16_t length);
  79:./Libraries/STM32_USB_Host_Library/Core/Src/usbh_ctlreq.c **** 
  80:./Libraries/STM32_USB_Host_Library/Core/Src/usbh_ctlreq.c **** static void USBH_ParseEPDesc(USBH_EpDescTypeDef  *ep_descriptor, uint8_t *buf);
  81:./Libraries/STM32_USB_Host_Library/Core/Src/usbh_ctlreq.c **** static void USBH_ParseStringDesc(uint8_t *psrc, uint8_t *pdest, uint16_t length);
  82:./Libraries/STM32_USB_Host_Library/Core/Src/usbh_ctlreq.c **** static void USBH_ParseInterfaceDesc(USBH_InterfaceDescTypeDef  *if_descriptor, uint8_t *buf);
  83:./Libraries/STM32_USB_Host_Library/Core/Src/usbh_ctlreq.c **** 
  84:./Libraries/STM32_USB_Host_Library/Core/Src/usbh_ctlreq.c **** 
  85:./Libraries/STM32_USB_Host_Library/Core/Src/usbh_ctlreq.c **** /**
  86:./Libraries/STM32_USB_Host_Library/Core/Src/usbh_ctlreq.c **** * @}
ARM GAS  /tmp/ccOpRQ1g.s 			page 3


  87:./Libraries/STM32_USB_Host_Library/Core/Src/usbh_ctlreq.c **** */
  88:./Libraries/STM32_USB_Host_Library/Core/Src/usbh_ctlreq.c **** 
  89:./Libraries/STM32_USB_Host_Library/Core/Src/usbh_ctlreq.c **** 
  90:./Libraries/STM32_USB_Host_Library/Core/Src/usbh_ctlreq.c **** /** @defgroup USBH_CTLREQ_Private_Functions
  91:./Libraries/STM32_USB_Host_Library/Core/Src/usbh_ctlreq.c **** * @{
  92:./Libraries/STM32_USB_Host_Library/Core/Src/usbh_ctlreq.c **** */
  93:./Libraries/STM32_USB_Host_Library/Core/Src/usbh_ctlreq.c **** 
  94:./Libraries/STM32_USB_Host_Library/Core/Src/usbh_ctlreq.c **** 
  95:./Libraries/STM32_USB_Host_Library/Core/Src/usbh_ctlreq.c **** /**
  96:./Libraries/STM32_USB_Host_Library/Core/Src/usbh_ctlreq.c ****   * @brief  USBH_Get_DevDesc
  97:./Libraries/STM32_USB_Host_Library/Core/Src/usbh_ctlreq.c ****   *         Issue Get Device Descriptor command to the device. Once the response
  98:./Libraries/STM32_USB_Host_Library/Core/Src/usbh_ctlreq.c ****   *         received, it parses the device descriptor and updates the status.
  99:./Libraries/STM32_USB_Host_Library/Core/Src/usbh_ctlreq.c ****   * @param  phost: Host Handle
 100:./Libraries/STM32_USB_Host_Library/Core/Src/usbh_ctlreq.c ****   * @param  length: Length of the descriptor
 101:./Libraries/STM32_USB_Host_Library/Core/Src/usbh_ctlreq.c ****   * @retval USBH Status
 102:./Libraries/STM32_USB_Host_Library/Core/Src/usbh_ctlreq.c ****   */
 103:./Libraries/STM32_USB_Host_Library/Core/Src/usbh_ctlreq.c **** USBH_StatusTypeDef USBH_Get_DevDesc(USBH_HandleTypeDef *phost, uint8_t length)
 104:./Libraries/STM32_USB_Host_Library/Core/Src/usbh_ctlreq.c **** {
 105:./Libraries/STM32_USB_Host_Library/Core/Src/usbh_ctlreq.c ****   USBH_StatusTypeDef status;
 106:./Libraries/STM32_USB_Host_Library/Core/Src/usbh_ctlreq.c **** 
 107:./Libraries/STM32_USB_Host_Library/Core/Src/usbh_ctlreq.c ****   if ((status = USBH_GetDescriptor(phost,
 108:./Libraries/STM32_USB_Host_Library/Core/Src/usbh_ctlreq.c ****                                    USB_REQ_RECIPIENT_DEVICE | USB_REQ_TYPE_STANDARD,
 109:./Libraries/STM32_USB_Host_Library/Core/Src/usbh_ctlreq.c ****                                    USB_DESC_DEVICE, phost->device.Data,
 110:./Libraries/STM32_USB_Host_Library/Core/Src/usbh_ctlreq.c ****                                    (uint16_t)length)) == USBH_OK)
 111:./Libraries/STM32_USB_Host_Library/Core/Src/usbh_ctlreq.c ****   {
 112:./Libraries/STM32_USB_Host_Library/Core/Src/usbh_ctlreq.c ****     /* Commands successfully sent and Response Received */
 113:./Libraries/STM32_USB_Host_Library/Core/Src/usbh_ctlreq.c ****     USBH_ParseDevDesc(&phost->device.DevDesc, phost->device.Data,
 114:./Libraries/STM32_USB_Host_Library/Core/Src/usbh_ctlreq.c ****                       (uint16_t)length);
 115:./Libraries/STM32_USB_Host_Library/Core/Src/usbh_ctlreq.c ****   }
 116:./Libraries/STM32_USB_Host_Library/Core/Src/usbh_ctlreq.c **** 
 117:./Libraries/STM32_USB_Host_Library/Core/Src/usbh_ctlreq.c ****   return status;
 118:./Libraries/STM32_USB_Host_Library/Core/Src/usbh_ctlreq.c **** }
 119:./Libraries/STM32_USB_Host_Library/Core/Src/usbh_ctlreq.c **** 
 120:./Libraries/STM32_USB_Host_Library/Core/Src/usbh_ctlreq.c **** 
 121:./Libraries/STM32_USB_Host_Library/Core/Src/usbh_ctlreq.c **** /**
 122:./Libraries/STM32_USB_Host_Library/Core/Src/usbh_ctlreq.c ****   * @brief  USBH_Get_CfgDesc
 123:./Libraries/STM32_USB_Host_Library/Core/Src/usbh_ctlreq.c ****   *         Issues Configuration Descriptor to the device. Once the response
 124:./Libraries/STM32_USB_Host_Library/Core/Src/usbh_ctlreq.c ****   *         received, it parses the configuration descriptor and updates the
 125:./Libraries/STM32_USB_Host_Library/Core/Src/usbh_ctlreq.c ****   *         status.
 126:./Libraries/STM32_USB_Host_Library/Core/Src/usbh_ctlreq.c ****   * @param  phost: Host Handle
 127:./Libraries/STM32_USB_Host_Library/Core/Src/usbh_ctlreq.c ****   * @param  length: Length of the descriptor
 128:./Libraries/STM32_USB_Host_Library/Core/Src/usbh_ctlreq.c ****   * @retval USBH Status
 129:./Libraries/STM32_USB_Host_Library/Core/Src/usbh_ctlreq.c ****   */
 130:./Libraries/STM32_USB_Host_Library/Core/Src/usbh_ctlreq.c **** USBH_StatusTypeDef USBH_Get_CfgDesc(USBH_HandleTypeDef *phost,
 131:./Libraries/STM32_USB_Host_Library/Core/Src/usbh_ctlreq.c ****                                     uint16_t length)
 132:./Libraries/STM32_USB_Host_Library/Core/Src/usbh_ctlreq.c **** 
 133:./Libraries/STM32_USB_Host_Library/Core/Src/usbh_ctlreq.c **** {
 134:./Libraries/STM32_USB_Host_Library/Core/Src/usbh_ctlreq.c ****   USBH_StatusTypeDef status;
 135:./Libraries/STM32_USB_Host_Library/Core/Src/usbh_ctlreq.c ****   uint8_t *pData = phost->device.CfgDesc_Raw;;
 136:./Libraries/STM32_USB_Host_Library/Core/Src/usbh_ctlreq.c **** 
 137:./Libraries/STM32_USB_Host_Library/Core/Src/usbh_ctlreq.c ****   if ((status = USBH_GetDescriptor(phost, (USB_REQ_RECIPIENT_DEVICE | USB_REQ_TYPE_STANDARD),
 138:./Libraries/STM32_USB_Host_Library/Core/Src/usbh_ctlreq.c ****                                    USB_DESC_CONFIGURATION, pData, length)) == USBH_OK)
 139:./Libraries/STM32_USB_Host_Library/Core/Src/usbh_ctlreq.c ****   {
 140:./Libraries/STM32_USB_Host_Library/Core/Src/usbh_ctlreq.c ****     /* Commands successfully sent and Response Received  */
 141:./Libraries/STM32_USB_Host_Library/Core/Src/usbh_ctlreq.c ****     USBH_ParseCfgDesc(&phost->device.CfgDesc, pData, length);
 142:./Libraries/STM32_USB_Host_Library/Core/Src/usbh_ctlreq.c ****   }
 143:./Libraries/STM32_USB_Host_Library/Core/Src/usbh_ctlreq.c **** 
ARM GAS  /tmp/ccOpRQ1g.s 			page 4


 144:./Libraries/STM32_USB_Host_Library/Core/Src/usbh_ctlreq.c ****   return status;
 145:./Libraries/STM32_USB_Host_Library/Core/Src/usbh_ctlreq.c **** }
 146:./Libraries/STM32_USB_Host_Library/Core/Src/usbh_ctlreq.c **** 
 147:./Libraries/STM32_USB_Host_Library/Core/Src/usbh_ctlreq.c **** 
 148:./Libraries/STM32_USB_Host_Library/Core/Src/usbh_ctlreq.c **** /**
 149:./Libraries/STM32_USB_Host_Library/Core/Src/usbh_ctlreq.c ****   * @brief  USBH_Get_StringDesc
 150:./Libraries/STM32_USB_Host_Library/Core/Src/usbh_ctlreq.c ****   *         Issues string Descriptor command to the device. Once the response
 151:./Libraries/STM32_USB_Host_Library/Core/Src/usbh_ctlreq.c ****   *         received, it parses the string descriptor and updates the status.
 152:./Libraries/STM32_USB_Host_Library/Core/Src/usbh_ctlreq.c ****   * @param  phost: Host Handle
 153:./Libraries/STM32_USB_Host_Library/Core/Src/usbh_ctlreq.c ****   * @param  string_index: String index for the descriptor
 154:./Libraries/STM32_USB_Host_Library/Core/Src/usbh_ctlreq.c ****   * @param  buff: Buffer address for the descriptor
 155:./Libraries/STM32_USB_Host_Library/Core/Src/usbh_ctlreq.c ****   * @param  length: Length of the descriptor
 156:./Libraries/STM32_USB_Host_Library/Core/Src/usbh_ctlreq.c ****   * @retval USBH Status
 157:./Libraries/STM32_USB_Host_Library/Core/Src/usbh_ctlreq.c ****   */
 158:./Libraries/STM32_USB_Host_Library/Core/Src/usbh_ctlreq.c **** USBH_StatusTypeDef USBH_Get_StringDesc(USBH_HandleTypeDef *phost,
 159:./Libraries/STM32_USB_Host_Library/Core/Src/usbh_ctlreq.c ****                                        uint8_t string_index, uint8_t *buff,
 160:./Libraries/STM32_USB_Host_Library/Core/Src/usbh_ctlreq.c ****                                        uint16_t length)
 161:./Libraries/STM32_USB_Host_Library/Core/Src/usbh_ctlreq.c **** {
 162:./Libraries/STM32_USB_Host_Library/Core/Src/usbh_ctlreq.c ****   USBH_StatusTypeDef status;
 163:./Libraries/STM32_USB_Host_Library/Core/Src/usbh_ctlreq.c **** 
 164:./Libraries/STM32_USB_Host_Library/Core/Src/usbh_ctlreq.c ****   if ((status = USBH_GetDescriptor(phost,
 165:./Libraries/STM32_USB_Host_Library/Core/Src/usbh_ctlreq.c ****                                    USB_REQ_RECIPIENT_DEVICE | USB_REQ_TYPE_STANDARD,
 166:./Libraries/STM32_USB_Host_Library/Core/Src/usbh_ctlreq.c ****                                    USB_DESC_STRING | string_index,
 167:./Libraries/STM32_USB_Host_Library/Core/Src/usbh_ctlreq.c ****                                    phost->device.Data, length)) == USBH_OK)
 168:./Libraries/STM32_USB_Host_Library/Core/Src/usbh_ctlreq.c ****   {
 169:./Libraries/STM32_USB_Host_Library/Core/Src/usbh_ctlreq.c ****     /* Commands successfully sent and Response Received  */
 170:./Libraries/STM32_USB_Host_Library/Core/Src/usbh_ctlreq.c ****     USBH_ParseStringDesc(phost->device.Data, buff, length);
 171:./Libraries/STM32_USB_Host_Library/Core/Src/usbh_ctlreq.c ****   }
 172:./Libraries/STM32_USB_Host_Library/Core/Src/usbh_ctlreq.c **** 
 173:./Libraries/STM32_USB_Host_Library/Core/Src/usbh_ctlreq.c ****   return status;
 174:./Libraries/STM32_USB_Host_Library/Core/Src/usbh_ctlreq.c **** }
 175:./Libraries/STM32_USB_Host_Library/Core/Src/usbh_ctlreq.c **** 
 176:./Libraries/STM32_USB_Host_Library/Core/Src/usbh_ctlreq.c **** 
 177:./Libraries/STM32_USB_Host_Library/Core/Src/usbh_ctlreq.c **** /**
 178:./Libraries/STM32_USB_Host_Library/Core/Src/usbh_ctlreq.c ****   * @brief  USBH_GetDescriptor
 179:./Libraries/STM32_USB_Host_Library/Core/Src/usbh_ctlreq.c ****   *         Issues Descriptor command to the device. Once the response received,
 180:./Libraries/STM32_USB_Host_Library/Core/Src/usbh_ctlreq.c ****   *         it parses the descriptor and updates the status.
 181:./Libraries/STM32_USB_Host_Library/Core/Src/usbh_ctlreq.c ****   * @param  phost: Host Handle
 182:./Libraries/STM32_USB_Host_Library/Core/Src/usbh_ctlreq.c ****   * @param  req_type: Descriptor type
 183:./Libraries/STM32_USB_Host_Library/Core/Src/usbh_ctlreq.c ****   * @param  value_idx: Value for the GetDescriptr request
 184:./Libraries/STM32_USB_Host_Library/Core/Src/usbh_ctlreq.c ****   * @param  buff: Buffer to store the descriptor
 185:./Libraries/STM32_USB_Host_Library/Core/Src/usbh_ctlreq.c ****   * @param  length: Length of the descriptor
 186:./Libraries/STM32_USB_Host_Library/Core/Src/usbh_ctlreq.c ****   * @retval USBH Status
 187:./Libraries/STM32_USB_Host_Library/Core/Src/usbh_ctlreq.c ****   */
 188:./Libraries/STM32_USB_Host_Library/Core/Src/usbh_ctlreq.c **** USBH_StatusTypeDef USBH_GetDescriptor(USBH_HandleTypeDef *phost,
 189:./Libraries/STM32_USB_Host_Library/Core/Src/usbh_ctlreq.c ****                                       uint8_t  req_type,
 190:./Libraries/STM32_USB_Host_Library/Core/Src/usbh_ctlreq.c ****                                       uint16_t value_idx,
 191:./Libraries/STM32_USB_Host_Library/Core/Src/usbh_ctlreq.c ****                                       uint8_t *buff,
 192:./Libraries/STM32_USB_Host_Library/Core/Src/usbh_ctlreq.c ****                                       uint16_t length)
 193:./Libraries/STM32_USB_Host_Library/Core/Src/usbh_ctlreq.c **** {
 194:./Libraries/STM32_USB_Host_Library/Core/Src/usbh_ctlreq.c ****   if (phost->RequestState == CMD_SEND)
 195:./Libraries/STM32_USB_Host_Library/Core/Src/usbh_ctlreq.c ****   {
 196:./Libraries/STM32_USB_Host_Library/Core/Src/usbh_ctlreq.c ****     phost->Control.setup.b.bmRequestType = USB_D2H | req_type;
 197:./Libraries/STM32_USB_Host_Library/Core/Src/usbh_ctlreq.c ****     phost->Control.setup.b.bRequest = USB_REQ_GET_DESCRIPTOR;
 198:./Libraries/STM32_USB_Host_Library/Core/Src/usbh_ctlreq.c ****     phost->Control.setup.b.wValue.w = value_idx;
 199:./Libraries/STM32_USB_Host_Library/Core/Src/usbh_ctlreq.c **** 
 200:./Libraries/STM32_USB_Host_Library/Core/Src/usbh_ctlreq.c ****     if ((value_idx & 0xff00U) == USB_DESC_STRING)
ARM GAS  /tmp/ccOpRQ1g.s 			page 5


 201:./Libraries/STM32_USB_Host_Library/Core/Src/usbh_ctlreq.c ****     {
 202:./Libraries/STM32_USB_Host_Library/Core/Src/usbh_ctlreq.c ****       phost->Control.setup.b.wIndex.w = 0x0409U;
 203:./Libraries/STM32_USB_Host_Library/Core/Src/usbh_ctlreq.c ****     }
 204:./Libraries/STM32_USB_Host_Library/Core/Src/usbh_ctlreq.c ****     else
 205:./Libraries/STM32_USB_Host_Library/Core/Src/usbh_ctlreq.c ****     {
 206:./Libraries/STM32_USB_Host_Library/Core/Src/usbh_ctlreq.c ****       phost->Control.setup.b.wIndex.w = 0U;
 207:./Libraries/STM32_USB_Host_Library/Core/Src/usbh_ctlreq.c ****     }
 208:./Libraries/STM32_USB_Host_Library/Core/Src/usbh_ctlreq.c ****     phost->Control.setup.b.wLength.w = length;
 209:./Libraries/STM32_USB_Host_Library/Core/Src/usbh_ctlreq.c ****   }
 210:./Libraries/STM32_USB_Host_Library/Core/Src/usbh_ctlreq.c **** 
 211:./Libraries/STM32_USB_Host_Library/Core/Src/usbh_ctlreq.c ****   return USBH_CtlReq(phost, buff, length);
 212:./Libraries/STM32_USB_Host_Library/Core/Src/usbh_ctlreq.c **** }
 213:./Libraries/STM32_USB_Host_Library/Core/Src/usbh_ctlreq.c **** 
 214:./Libraries/STM32_USB_Host_Library/Core/Src/usbh_ctlreq.c **** 
 215:./Libraries/STM32_USB_Host_Library/Core/Src/usbh_ctlreq.c **** /**
 216:./Libraries/STM32_USB_Host_Library/Core/Src/usbh_ctlreq.c ****   * @brief  USBH_SetAddress
 217:./Libraries/STM32_USB_Host_Library/Core/Src/usbh_ctlreq.c ****   *         This command sets the address to the connected device
 218:./Libraries/STM32_USB_Host_Library/Core/Src/usbh_ctlreq.c ****   * @param  phost: Host Handle
 219:./Libraries/STM32_USB_Host_Library/Core/Src/usbh_ctlreq.c ****   * @param  DeviceAddress: Device address to assign
 220:./Libraries/STM32_USB_Host_Library/Core/Src/usbh_ctlreq.c ****   * @retval USBH Status
 221:./Libraries/STM32_USB_Host_Library/Core/Src/usbh_ctlreq.c ****   */
 222:./Libraries/STM32_USB_Host_Library/Core/Src/usbh_ctlreq.c **** USBH_StatusTypeDef USBH_SetAddress(USBH_HandleTypeDef *phost,
 223:./Libraries/STM32_USB_Host_Library/Core/Src/usbh_ctlreq.c ****                                    uint8_t DeviceAddress)
 224:./Libraries/STM32_USB_Host_Library/Core/Src/usbh_ctlreq.c **** {
 225:./Libraries/STM32_USB_Host_Library/Core/Src/usbh_ctlreq.c ****   if (phost->RequestState == CMD_SEND)
 226:./Libraries/STM32_USB_Host_Library/Core/Src/usbh_ctlreq.c ****   {
 227:./Libraries/STM32_USB_Host_Library/Core/Src/usbh_ctlreq.c ****     phost->Control.setup.b.bmRequestType = USB_H2D | USB_REQ_RECIPIENT_DEVICE | \
 228:./Libraries/STM32_USB_Host_Library/Core/Src/usbh_ctlreq.c ****                                            USB_REQ_TYPE_STANDARD;
 229:./Libraries/STM32_USB_Host_Library/Core/Src/usbh_ctlreq.c **** 
 230:./Libraries/STM32_USB_Host_Library/Core/Src/usbh_ctlreq.c ****     phost->Control.setup.b.bRequest = USB_REQ_SET_ADDRESS;
 231:./Libraries/STM32_USB_Host_Library/Core/Src/usbh_ctlreq.c **** 
 232:./Libraries/STM32_USB_Host_Library/Core/Src/usbh_ctlreq.c ****     phost->Control.setup.b.wValue.w = (uint16_t)DeviceAddress;
 233:./Libraries/STM32_USB_Host_Library/Core/Src/usbh_ctlreq.c ****     phost->Control.setup.b.wIndex.w = 0U;
 234:./Libraries/STM32_USB_Host_Library/Core/Src/usbh_ctlreq.c ****     phost->Control.setup.b.wLength.w = 0U;
 235:./Libraries/STM32_USB_Host_Library/Core/Src/usbh_ctlreq.c ****   }
 236:./Libraries/STM32_USB_Host_Library/Core/Src/usbh_ctlreq.c **** 
 237:./Libraries/STM32_USB_Host_Library/Core/Src/usbh_ctlreq.c ****   return USBH_CtlReq(phost, 0U, 0U);
 238:./Libraries/STM32_USB_Host_Library/Core/Src/usbh_ctlreq.c **** }
 239:./Libraries/STM32_USB_Host_Library/Core/Src/usbh_ctlreq.c **** 
 240:./Libraries/STM32_USB_Host_Library/Core/Src/usbh_ctlreq.c **** 
 241:./Libraries/STM32_USB_Host_Library/Core/Src/usbh_ctlreq.c **** /**
 242:./Libraries/STM32_USB_Host_Library/Core/Src/usbh_ctlreq.c ****   * @brief  USBH_SetCfg
 243:./Libraries/STM32_USB_Host_Library/Core/Src/usbh_ctlreq.c ****   *         The command sets the configuration value to the connected device
 244:./Libraries/STM32_USB_Host_Library/Core/Src/usbh_ctlreq.c ****   * @param  phost: Host Handle
 245:./Libraries/STM32_USB_Host_Library/Core/Src/usbh_ctlreq.c ****   * @param  cfg_idx: Configuration value
 246:./Libraries/STM32_USB_Host_Library/Core/Src/usbh_ctlreq.c ****   * @retval USBH Status
 247:./Libraries/STM32_USB_Host_Library/Core/Src/usbh_ctlreq.c ****   */
 248:./Libraries/STM32_USB_Host_Library/Core/Src/usbh_ctlreq.c **** USBH_StatusTypeDef USBH_SetCfg(USBH_HandleTypeDef *phost, uint16_t cfg_idx)
 249:./Libraries/STM32_USB_Host_Library/Core/Src/usbh_ctlreq.c **** {
 250:./Libraries/STM32_USB_Host_Library/Core/Src/usbh_ctlreq.c ****   if (phost->RequestState == CMD_SEND)
 251:./Libraries/STM32_USB_Host_Library/Core/Src/usbh_ctlreq.c ****   {
 252:./Libraries/STM32_USB_Host_Library/Core/Src/usbh_ctlreq.c ****     phost->Control.setup.b.bmRequestType = USB_H2D | USB_REQ_RECIPIENT_DEVICE
 253:./Libraries/STM32_USB_Host_Library/Core/Src/usbh_ctlreq.c ****                                            | USB_REQ_TYPE_STANDARD;
 254:./Libraries/STM32_USB_Host_Library/Core/Src/usbh_ctlreq.c **** 
 255:./Libraries/STM32_USB_Host_Library/Core/Src/usbh_ctlreq.c ****     phost->Control.setup.b.bRequest = USB_REQ_SET_CONFIGURATION;
 256:./Libraries/STM32_USB_Host_Library/Core/Src/usbh_ctlreq.c ****     phost->Control.setup.b.wValue.w = cfg_idx;
 257:./Libraries/STM32_USB_Host_Library/Core/Src/usbh_ctlreq.c ****     phost->Control.setup.b.wIndex.w = 0U;
ARM GAS  /tmp/ccOpRQ1g.s 			page 6


 258:./Libraries/STM32_USB_Host_Library/Core/Src/usbh_ctlreq.c ****     phost->Control.setup.b.wLength.w = 0U;
 259:./Libraries/STM32_USB_Host_Library/Core/Src/usbh_ctlreq.c ****   }
 260:./Libraries/STM32_USB_Host_Library/Core/Src/usbh_ctlreq.c **** 
 261:./Libraries/STM32_USB_Host_Library/Core/Src/usbh_ctlreq.c ****   return USBH_CtlReq(phost, 0U, 0U);
 262:./Libraries/STM32_USB_Host_Library/Core/Src/usbh_ctlreq.c **** }
 263:./Libraries/STM32_USB_Host_Library/Core/Src/usbh_ctlreq.c **** 
 264:./Libraries/STM32_USB_Host_Library/Core/Src/usbh_ctlreq.c **** 
 265:./Libraries/STM32_USB_Host_Library/Core/Src/usbh_ctlreq.c **** /**
 266:./Libraries/STM32_USB_Host_Library/Core/Src/usbh_ctlreq.c ****   * @brief  USBH_SetInterface
 267:./Libraries/STM32_USB_Host_Library/Core/Src/usbh_ctlreq.c ****   *         The command sets the Interface value to the connected device
 268:./Libraries/STM32_USB_Host_Library/Core/Src/usbh_ctlreq.c ****   * @param  phost: Host Handle
 269:./Libraries/STM32_USB_Host_Library/Core/Src/usbh_ctlreq.c ****   * @param  altSetting: Interface value
 270:./Libraries/STM32_USB_Host_Library/Core/Src/usbh_ctlreq.c ****   * @retval USBH Status
 271:./Libraries/STM32_USB_Host_Library/Core/Src/usbh_ctlreq.c ****   */
 272:./Libraries/STM32_USB_Host_Library/Core/Src/usbh_ctlreq.c **** USBH_StatusTypeDef USBH_SetInterface(USBH_HandleTypeDef *phost, uint8_t ep_num,
 273:./Libraries/STM32_USB_Host_Library/Core/Src/usbh_ctlreq.c ****                                      uint8_t altSetting)
 274:./Libraries/STM32_USB_Host_Library/Core/Src/usbh_ctlreq.c **** {
 275:./Libraries/STM32_USB_Host_Library/Core/Src/usbh_ctlreq.c ****   if (phost->RequestState == CMD_SEND)
 276:./Libraries/STM32_USB_Host_Library/Core/Src/usbh_ctlreq.c ****   {
 277:./Libraries/STM32_USB_Host_Library/Core/Src/usbh_ctlreq.c ****     phost->Control.setup.b.bmRequestType = USB_H2D | USB_REQ_RECIPIENT_INTERFACE
 278:./Libraries/STM32_USB_Host_Library/Core/Src/usbh_ctlreq.c ****                                            | USB_REQ_TYPE_STANDARD;
 279:./Libraries/STM32_USB_Host_Library/Core/Src/usbh_ctlreq.c **** 
 280:./Libraries/STM32_USB_Host_Library/Core/Src/usbh_ctlreq.c ****     phost->Control.setup.b.bRequest = USB_REQ_SET_INTERFACE;
 281:./Libraries/STM32_USB_Host_Library/Core/Src/usbh_ctlreq.c ****     phost->Control.setup.b.wValue.w = altSetting;
 282:./Libraries/STM32_USB_Host_Library/Core/Src/usbh_ctlreq.c ****     phost->Control.setup.b.wIndex.w = ep_num;
 283:./Libraries/STM32_USB_Host_Library/Core/Src/usbh_ctlreq.c ****     phost->Control.setup.b.wLength.w = 0U;
 284:./Libraries/STM32_USB_Host_Library/Core/Src/usbh_ctlreq.c ****   }
 285:./Libraries/STM32_USB_Host_Library/Core/Src/usbh_ctlreq.c **** 
 286:./Libraries/STM32_USB_Host_Library/Core/Src/usbh_ctlreq.c ****   return USBH_CtlReq(phost, 0U, 0U);
 287:./Libraries/STM32_USB_Host_Library/Core/Src/usbh_ctlreq.c **** }
 288:./Libraries/STM32_USB_Host_Library/Core/Src/usbh_ctlreq.c **** 
 289:./Libraries/STM32_USB_Host_Library/Core/Src/usbh_ctlreq.c **** 
 290:./Libraries/STM32_USB_Host_Library/Core/Src/usbh_ctlreq.c **** /**
 291:./Libraries/STM32_USB_Host_Library/Core/Src/usbh_ctlreq.c ****   * @brief  USBH_SetFeature
 292:./Libraries/STM32_USB_Host_Library/Core/Src/usbh_ctlreq.c ****   *         The command sets the device features (remote wakeup feature,..)
 293:./Libraries/STM32_USB_Host_Library/Core/Src/usbh_ctlreq.c ****   * @param  pdev: Selected device
 294:./Libraries/STM32_USB_Host_Library/Core/Src/usbh_ctlreq.c ****   * @param  itf_idx
 295:./Libraries/STM32_USB_Host_Library/Core/Src/usbh_ctlreq.c ****   * @retval Status
 296:./Libraries/STM32_USB_Host_Library/Core/Src/usbh_ctlreq.c **** */
 297:./Libraries/STM32_USB_Host_Library/Core/Src/usbh_ctlreq.c **** USBH_StatusTypeDef USBH_SetFeature(USBH_HandleTypeDef *phost, uint8_t wValue)
 298:./Libraries/STM32_USB_Host_Library/Core/Src/usbh_ctlreq.c **** {
 299:./Libraries/STM32_USB_Host_Library/Core/Src/usbh_ctlreq.c ****   if (phost->RequestState == CMD_SEND)
 300:./Libraries/STM32_USB_Host_Library/Core/Src/usbh_ctlreq.c ****   {
 301:./Libraries/STM32_USB_Host_Library/Core/Src/usbh_ctlreq.c ****     phost->Control.setup.b.bmRequestType = USB_H2D | USB_REQ_RECIPIENT_DEVICE
 302:./Libraries/STM32_USB_Host_Library/Core/Src/usbh_ctlreq.c ****                                            | USB_REQ_TYPE_STANDARD;
 303:./Libraries/STM32_USB_Host_Library/Core/Src/usbh_ctlreq.c **** 
 304:./Libraries/STM32_USB_Host_Library/Core/Src/usbh_ctlreq.c ****     phost->Control.setup.b.bRequest = USB_REQ_SET_FEATURE;
 305:./Libraries/STM32_USB_Host_Library/Core/Src/usbh_ctlreq.c ****     phost->Control.setup.b.wValue.w = wValue;
 306:./Libraries/STM32_USB_Host_Library/Core/Src/usbh_ctlreq.c ****     phost->Control.setup.b.wIndex.w = 0U;
 307:./Libraries/STM32_USB_Host_Library/Core/Src/usbh_ctlreq.c ****     phost->Control.setup.b.wLength.w = 0U;
 308:./Libraries/STM32_USB_Host_Library/Core/Src/usbh_ctlreq.c ****   }
 309:./Libraries/STM32_USB_Host_Library/Core/Src/usbh_ctlreq.c **** 
 310:./Libraries/STM32_USB_Host_Library/Core/Src/usbh_ctlreq.c ****   return USBH_CtlReq(phost, 0U, 0U);
 311:./Libraries/STM32_USB_Host_Library/Core/Src/usbh_ctlreq.c **** }
 312:./Libraries/STM32_USB_Host_Library/Core/Src/usbh_ctlreq.c **** 
 313:./Libraries/STM32_USB_Host_Library/Core/Src/usbh_ctlreq.c **** 
 314:./Libraries/STM32_USB_Host_Library/Core/Src/usbh_ctlreq.c **** /**
ARM GAS  /tmp/ccOpRQ1g.s 			page 7


 315:./Libraries/STM32_USB_Host_Library/Core/Src/usbh_ctlreq.c ****   * @brief  USBH_ClrFeature
 316:./Libraries/STM32_USB_Host_Library/Core/Src/usbh_ctlreq.c ****   *         This request is used to clear or disable a specific feature.
 317:./Libraries/STM32_USB_Host_Library/Core/Src/usbh_ctlreq.c ****   * @param  phost: Host Handle
 318:./Libraries/STM32_USB_Host_Library/Core/Src/usbh_ctlreq.c ****   * @param  ep_num: endpoint number
 319:./Libraries/STM32_USB_Host_Library/Core/Src/usbh_ctlreq.c ****   * @param  hc_num: Host channel number
 320:./Libraries/STM32_USB_Host_Library/Core/Src/usbh_ctlreq.c ****   * @retval USBH Status
 321:./Libraries/STM32_USB_Host_Library/Core/Src/usbh_ctlreq.c ****   */
 322:./Libraries/STM32_USB_Host_Library/Core/Src/usbh_ctlreq.c **** USBH_StatusTypeDef USBH_ClrFeature(USBH_HandleTypeDef *phost, uint8_t ep_num)
 323:./Libraries/STM32_USB_Host_Library/Core/Src/usbh_ctlreq.c **** {
 324:./Libraries/STM32_USB_Host_Library/Core/Src/usbh_ctlreq.c ****   if (phost->RequestState == CMD_SEND)
 325:./Libraries/STM32_USB_Host_Library/Core/Src/usbh_ctlreq.c ****   {
 326:./Libraries/STM32_USB_Host_Library/Core/Src/usbh_ctlreq.c ****     phost->Control.setup.b.bmRequestType = USB_H2D | USB_REQ_RECIPIENT_ENDPOINT
 327:./Libraries/STM32_USB_Host_Library/Core/Src/usbh_ctlreq.c ****                                            | USB_REQ_TYPE_STANDARD;
 328:./Libraries/STM32_USB_Host_Library/Core/Src/usbh_ctlreq.c **** 
 329:./Libraries/STM32_USB_Host_Library/Core/Src/usbh_ctlreq.c ****     phost->Control.setup.b.bRequest = USB_REQ_CLEAR_FEATURE;
 330:./Libraries/STM32_USB_Host_Library/Core/Src/usbh_ctlreq.c ****     phost->Control.setup.b.wValue.w = FEATURE_SELECTOR_ENDPOINT;
 331:./Libraries/STM32_USB_Host_Library/Core/Src/usbh_ctlreq.c ****     phost->Control.setup.b.wIndex.w = ep_num;
 332:./Libraries/STM32_USB_Host_Library/Core/Src/usbh_ctlreq.c ****     phost->Control.setup.b.wLength.w = 0U;
 333:./Libraries/STM32_USB_Host_Library/Core/Src/usbh_ctlreq.c ****   }
 334:./Libraries/STM32_USB_Host_Library/Core/Src/usbh_ctlreq.c ****   return USBH_CtlReq(phost, 0U, 0U);
 335:./Libraries/STM32_USB_Host_Library/Core/Src/usbh_ctlreq.c **** }
 336:./Libraries/STM32_USB_Host_Library/Core/Src/usbh_ctlreq.c **** 
 337:./Libraries/STM32_USB_Host_Library/Core/Src/usbh_ctlreq.c **** 
 338:./Libraries/STM32_USB_Host_Library/Core/Src/usbh_ctlreq.c **** /**
 339:./Libraries/STM32_USB_Host_Library/Core/Src/usbh_ctlreq.c ****   * @brief  USBH_ParseDevDesc
 340:./Libraries/STM32_USB_Host_Library/Core/Src/usbh_ctlreq.c ****   *         This function Parses the device descriptor
 341:./Libraries/STM32_USB_Host_Library/Core/Src/usbh_ctlreq.c ****   * @param  dev_desc: device_descriptor destination address
 342:./Libraries/STM32_USB_Host_Library/Core/Src/usbh_ctlreq.c ****   * @param  buf: Buffer where the source descriptor is available
 343:./Libraries/STM32_USB_Host_Library/Core/Src/usbh_ctlreq.c ****   * @param  length: Length of the descriptor
 344:./Libraries/STM32_USB_Host_Library/Core/Src/usbh_ctlreq.c ****   * @retval None
 345:./Libraries/STM32_USB_Host_Library/Core/Src/usbh_ctlreq.c ****   */
 346:./Libraries/STM32_USB_Host_Library/Core/Src/usbh_ctlreq.c **** static void  USBH_ParseDevDesc(USBH_DevDescTypeDef *dev_desc, uint8_t *buf,
 347:./Libraries/STM32_USB_Host_Library/Core/Src/usbh_ctlreq.c ****                                uint16_t length)
 348:./Libraries/STM32_USB_Host_Library/Core/Src/usbh_ctlreq.c **** {
 349:./Libraries/STM32_USB_Host_Library/Core/Src/usbh_ctlreq.c ****   dev_desc->bLength            = *(uint8_t *)(buf +  0);
 350:./Libraries/STM32_USB_Host_Library/Core/Src/usbh_ctlreq.c ****   dev_desc->bDescriptorType    = *(uint8_t *)(buf +  1);
 351:./Libraries/STM32_USB_Host_Library/Core/Src/usbh_ctlreq.c ****   dev_desc->bcdUSB             = LE16(buf +  2);
 352:./Libraries/STM32_USB_Host_Library/Core/Src/usbh_ctlreq.c ****   dev_desc->bDeviceClass       = *(uint8_t *)(buf +  4);
 353:./Libraries/STM32_USB_Host_Library/Core/Src/usbh_ctlreq.c ****   dev_desc->bDeviceSubClass    = *(uint8_t *)(buf +  5);
 354:./Libraries/STM32_USB_Host_Library/Core/Src/usbh_ctlreq.c ****   dev_desc->bDeviceProtocol    = *(uint8_t *)(buf +  6);
 355:./Libraries/STM32_USB_Host_Library/Core/Src/usbh_ctlreq.c ****   dev_desc->bMaxPacketSize     = *(uint8_t *)(buf +  7);
 356:./Libraries/STM32_USB_Host_Library/Core/Src/usbh_ctlreq.c **** 
 357:./Libraries/STM32_USB_Host_Library/Core/Src/usbh_ctlreq.c ****   if (length > 8U)
 358:./Libraries/STM32_USB_Host_Library/Core/Src/usbh_ctlreq.c ****   {
 359:./Libraries/STM32_USB_Host_Library/Core/Src/usbh_ctlreq.c ****     /* For 1st time after device connection, Host may issue only 8 bytes for
 360:./Libraries/STM32_USB_Host_Library/Core/Src/usbh_ctlreq.c ****     Device Descriptor Length  */
 361:./Libraries/STM32_USB_Host_Library/Core/Src/usbh_ctlreq.c ****     dev_desc->idVendor           = LE16(buf +  8);
 362:./Libraries/STM32_USB_Host_Library/Core/Src/usbh_ctlreq.c ****     dev_desc->idProduct          = LE16(buf + 10);
 363:./Libraries/STM32_USB_Host_Library/Core/Src/usbh_ctlreq.c ****     dev_desc->bcdDevice          = LE16(buf + 12);
 364:./Libraries/STM32_USB_Host_Library/Core/Src/usbh_ctlreq.c ****     dev_desc->iManufacturer      = *(uint8_t *)(buf + 14);
 365:./Libraries/STM32_USB_Host_Library/Core/Src/usbh_ctlreq.c ****     dev_desc->iProduct           = *(uint8_t *)(buf + 15);
 366:./Libraries/STM32_USB_Host_Library/Core/Src/usbh_ctlreq.c ****     dev_desc->iSerialNumber      = *(uint8_t *)(buf + 16);
 367:./Libraries/STM32_USB_Host_Library/Core/Src/usbh_ctlreq.c ****     dev_desc->bNumConfigurations = *(uint8_t *)(buf + 17);
 368:./Libraries/STM32_USB_Host_Library/Core/Src/usbh_ctlreq.c ****   }
 369:./Libraries/STM32_USB_Host_Library/Core/Src/usbh_ctlreq.c **** }
 370:./Libraries/STM32_USB_Host_Library/Core/Src/usbh_ctlreq.c **** 
 371:./Libraries/STM32_USB_Host_Library/Core/Src/usbh_ctlreq.c **** 
ARM GAS  /tmp/ccOpRQ1g.s 			page 8


 372:./Libraries/STM32_USB_Host_Library/Core/Src/usbh_ctlreq.c **** /**
 373:./Libraries/STM32_USB_Host_Library/Core/Src/usbh_ctlreq.c ****   * @brief  USBH_ParseCfgDesc
 374:./Libraries/STM32_USB_Host_Library/Core/Src/usbh_ctlreq.c ****   *         This function Parses the configuration descriptor
 375:./Libraries/STM32_USB_Host_Library/Core/Src/usbh_ctlreq.c ****   * @param  cfg_desc: Configuration Descriptor address
 376:./Libraries/STM32_USB_Host_Library/Core/Src/usbh_ctlreq.c ****   * @param  buf: Buffer where the source descriptor is available
 377:./Libraries/STM32_USB_Host_Library/Core/Src/usbh_ctlreq.c ****   * @param  length: Length of the descriptor
 378:./Libraries/STM32_USB_Host_Library/Core/Src/usbh_ctlreq.c ****   * @retval None
 379:./Libraries/STM32_USB_Host_Library/Core/Src/usbh_ctlreq.c ****   */
 380:./Libraries/STM32_USB_Host_Library/Core/Src/usbh_ctlreq.c **** static void USBH_ParseCfgDesc(USBH_CfgDescTypeDef *cfg_desc, uint8_t *buf,
 381:./Libraries/STM32_USB_Host_Library/Core/Src/usbh_ctlreq.c ****                               uint16_t length)
 382:./Libraries/STM32_USB_Host_Library/Core/Src/usbh_ctlreq.c **** {
 383:./Libraries/STM32_USB_Host_Library/Core/Src/usbh_ctlreq.c ****   USBH_InterfaceDescTypeDef    *pif ;
 384:./Libraries/STM32_USB_Host_Library/Core/Src/usbh_ctlreq.c ****   USBH_EpDescTypeDef           *pep;
 385:./Libraries/STM32_USB_Host_Library/Core/Src/usbh_ctlreq.c ****   USBH_DescHeader_t            *pdesc = (USBH_DescHeader_t *)(void *)buf;
 386:./Libraries/STM32_USB_Host_Library/Core/Src/usbh_ctlreq.c ****   uint16_t                     ptr;
 387:./Libraries/STM32_USB_Host_Library/Core/Src/usbh_ctlreq.c ****   uint8_t                      if_ix = 0U;
 388:./Libraries/STM32_USB_Host_Library/Core/Src/usbh_ctlreq.c ****   uint8_t                      ep_ix = 0U;
 389:./Libraries/STM32_USB_Host_Library/Core/Src/usbh_ctlreq.c **** 
 390:./Libraries/STM32_USB_Host_Library/Core/Src/usbh_ctlreq.c ****   pdesc   = (USBH_DescHeader_t *)(void *)buf;
 391:./Libraries/STM32_USB_Host_Library/Core/Src/usbh_ctlreq.c **** 
 392:./Libraries/STM32_USB_Host_Library/Core/Src/usbh_ctlreq.c ****   /* Parse configuration descriptor */
 393:./Libraries/STM32_USB_Host_Library/Core/Src/usbh_ctlreq.c ****   cfg_desc->bLength             = *(uint8_t *)(buf + 0);
 394:./Libraries/STM32_USB_Host_Library/Core/Src/usbh_ctlreq.c ****   cfg_desc->bDescriptorType     = *(uint8_t *)(buf + 1);
 395:./Libraries/STM32_USB_Host_Library/Core/Src/usbh_ctlreq.c ****   cfg_desc->wTotalLength        = LE16(buf + 2);
 396:./Libraries/STM32_USB_Host_Library/Core/Src/usbh_ctlreq.c ****   cfg_desc->bNumInterfaces      = *(uint8_t *)(buf + 4);
 397:./Libraries/STM32_USB_Host_Library/Core/Src/usbh_ctlreq.c ****   cfg_desc->bConfigurationValue = *(uint8_t *)(buf + 5);
 398:./Libraries/STM32_USB_Host_Library/Core/Src/usbh_ctlreq.c ****   cfg_desc->iConfiguration      = *(uint8_t *)(buf + 6);
 399:./Libraries/STM32_USB_Host_Library/Core/Src/usbh_ctlreq.c ****   cfg_desc->bmAttributes        = *(uint8_t *)(buf + 7);
 400:./Libraries/STM32_USB_Host_Library/Core/Src/usbh_ctlreq.c ****   cfg_desc->bMaxPower           = *(uint8_t *)(buf + 8);
 401:./Libraries/STM32_USB_Host_Library/Core/Src/usbh_ctlreq.c **** 
 402:./Libraries/STM32_USB_Host_Library/Core/Src/usbh_ctlreq.c ****   if (length > USB_CONFIGURATION_DESC_SIZE)
 403:./Libraries/STM32_USB_Host_Library/Core/Src/usbh_ctlreq.c ****   {
 404:./Libraries/STM32_USB_Host_Library/Core/Src/usbh_ctlreq.c ****     ptr = USB_LEN_CFG_DESC;
 405:./Libraries/STM32_USB_Host_Library/Core/Src/usbh_ctlreq.c ****     pif = (USBH_InterfaceDescTypeDef *)0;
 406:./Libraries/STM32_USB_Host_Library/Core/Src/usbh_ctlreq.c **** 
 407:./Libraries/STM32_USB_Host_Library/Core/Src/usbh_ctlreq.c ****     while ((if_ix < USBH_MAX_NUM_INTERFACES) && (ptr < cfg_desc->wTotalLength))
 408:./Libraries/STM32_USB_Host_Library/Core/Src/usbh_ctlreq.c ****     {
 409:./Libraries/STM32_USB_Host_Library/Core/Src/usbh_ctlreq.c ****       pdesc = USBH_GetNextDesc((uint8_t *)(void *)pdesc, &ptr);
 410:./Libraries/STM32_USB_Host_Library/Core/Src/usbh_ctlreq.c ****       if (pdesc->bDescriptorType   == USB_DESC_TYPE_INTERFACE)
 411:./Libraries/STM32_USB_Host_Library/Core/Src/usbh_ctlreq.c ****       {
 412:./Libraries/STM32_USB_Host_Library/Core/Src/usbh_ctlreq.c ****         pif = &cfg_desc->Itf_Desc[if_ix];
 413:./Libraries/STM32_USB_Host_Library/Core/Src/usbh_ctlreq.c ****         USBH_ParseInterfaceDesc(pif, (uint8_t *)(void *)pdesc);
 414:./Libraries/STM32_USB_Host_Library/Core/Src/usbh_ctlreq.c **** 
 415:./Libraries/STM32_USB_Host_Library/Core/Src/usbh_ctlreq.c ****         ep_ix = 0U;
 416:./Libraries/STM32_USB_Host_Library/Core/Src/usbh_ctlreq.c ****         pep = (USBH_EpDescTypeDef *)0;
 417:./Libraries/STM32_USB_Host_Library/Core/Src/usbh_ctlreq.c ****         while ((ep_ix < pif->bNumEndpoints) && (ptr < cfg_desc->wTotalLength))
 418:./Libraries/STM32_USB_Host_Library/Core/Src/usbh_ctlreq.c ****         {
 419:./Libraries/STM32_USB_Host_Library/Core/Src/usbh_ctlreq.c ****           pdesc = USBH_GetNextDesc((uint8_t *)(void *)pdesc, &ptr);
 420:./Libraries/STM32_USB_Host_Library/Core/Src/usbh_ctlreq.c ****           if (pdesc->bDescriptorType   == USB_DESC_TYPE_ENDPOINT)
 421:./Libraries/STM32_USB_Host_Library/Core/Src/usbh_ctlreq.c ****           {
 422:./Libraries/STM32_USB_Host_Library/Core/Src/usbh_ctlreq.c ****             pep = &cfg_desc->Itf_Desc[if_ix].Ep_Desc[ep_ix];
 423:./Libraries/STM32_USB_Host_Library/Core/Src/usbh_ctlreq.c ****             USBH_ParseEPDesc(pep, (uint8_t *)(void *)pdesc);
 424:./Libraries/STM32_USB_Host_Library/Core/Src/usbh_ctlreq.c ****             ep_ix++;
 425:./Libraries/STM32_USB_Host_Library/Core/Src/usbh_ctlreq.c ****           }
 426:./Libraries/STM32_USB_Host_Library/Core/Src/usbh_ctlreq.c ****         }
 427:./Libraries/STM32_USB_Host_Library/Core/Src/usbh_ctlreq.c ****         if_ix++;
 428:./Libraries/STM32_USB_Host_Library/Core/Src/usbh_ctlreq.c ****       }
ARM GAS  /tmp/ccOpRQ1g.s 			page 9


 429:./Libraries/STM32_USB_Host_Library/Core/Src/usbh_ctlreq.c ****     }
 430:./Libraries/STM32_USB_Host_Library/Core/Src/usbh_ctlreq.c ****   }
 431:./Libraries/STM32_USB_Host_Library/Core/Src/usbh_ctlreq.c **** }
 432:./Libraries/STM32_USB_Host_Library/Core/Src/usbh_ctlreq.c **** 
 433:./Libraries/STM32_USB_Host_Library/Core/Src/usbh_ctlreq.c **** 
 434:./Libraries/STM32_USB_Host_Library/Core/Src/usbh_ctlreq.c **** /**
 435:./Libraries/STM32_USB_Host_Library/Core/Src/usbh_ctlreq.c ****   * @brief  USBH_ParseInterfaceDesc
 436:./Libraries/STM32_USB_Host_Library/Core/Src/usbh_ctlreq.c ****   *         This function Parses the interface descriptor
 437:./Libraries/STM32_USB_Host_Library/Core/Src/usbh_ctlreq.c ****   * @param  if_descriptor : Interface descriptor destination
 438:./Libraries/STM32_USB_Host_Library/Core/Src/usbh_ctlreq.c ****   * @param  buf: Buffer where the descriptor data is available
 439:./Libraries/STM32_USB_Host_Library/Core/Src/usbh_ctlreq.c ****   * @retval None
 440:./Libraries/STM32_USB_Host_Library/Core/Src/usbh_ctlreq.c ****   */
 441:./Libraries/STM32_USB_Host_Library/Core/Src/usbh_ctlreq.c **** static void  USBH_ParseInterfaceDesc(USBH_InterfaceDescTypeDef *if_descriptor,
 442:./Libraries/STM32_USB_Host_Library/Core/Src/usbh_ctlreq.c ****                                      uint8_t *buf)
 443:./Libraries/STM32_USB_Host_Library/Core/Src/usbh_ctlreq.c **** {
 444:./Libraries/STM32_USB_Host_Library/Core/Src/usbh_ctlreq.c ****   if_descriptor->bLength            = *(uint8_t *)(buf + 0);
 445:./Libraries/STM32_USB_Host_Library/Core/Src/usbh_ctlreq.c ****   if_descriptor->bDescriptorType    = *(uint8_t *)(buf + 1);
 446:./Libraries/STM32_USB_Host_Library/Core/Src/usbh_ctlreq.c ****   if_descriptor->bInterfaceNumber   = *(uint8_t *)(buf + 2);
 447:./Libraries/STM32_USB_Host_Library/Core/Src/usbh_ctlreq.c ****   if_descriptor->bAlternateSetting  = *(uint8_t *)(buf + 3);
 448:./Libraries/STM32_USB_Host_Library/Core/Src/usbh_ctlreq.c ****   if_descriptor->bNumEndpoints      = *(uint8_t *)(buf + 4);
 449:./Libraries/STM32_USB_Host_Library/Core/Src/usbh_ctlreq.c ****   if_descriptor->bInterfaceClass    = *(uint8_t *)(buf + 5);
 450:./Libraries/STM32_USB_Host_Library/Core/Src/usbh_ctlreq.c ****   if_descriptor->bInterfaceSubClass = *(uint8_t *)(buf + 6);
 451:./Libraries/STM32_USB_Host_Library/Core/Src/usbh_ctlreq.c ****   if_descriptor->bInterfaceProtocol = *(uint8_t *)(buf + 7);
 452:./Libraries/STM32_USB_Host_Library/Core/Src/usbh_ctlreq.c ****   if_descriptor->iInterface         = *(uint8_t *)(buf + 8);
 453:./Libraries/STM32_USB_Host_Library/Core/Src/usbh_ctlreq.c **** }
 454:./Libraries/STM32_USB_Host_Library/Core/Src/usbh_ctlreq.c **** 
 455:./Libraries/STM32_USB_Host_Library/Core/Src/usbh_ctlreq.c **** 
 456:./Libraries/STM32_USB_Host_Library/Core/Src/usbh_ctlreq.c **** /**
 457:./Libraries/STM32_USB_Host_Library/Core/Src/usbh_ctlreq.c ****   * @brief  USBH_ParseEPDesc
 458:./Libraries/STM32_USB_Host_Library/Core/Src/usbh_ctlreq.c ****   *         This function Parses the endpoint descriptor
 459:./Libraries/STM32_USB_Host_Library/Core/Src/usbh_ctlreq.c ****   * @param  ep_descriptor: Endpoint descriptor destination address
 460:./Libraries/STM32_USB_Host_Library/Core/Src/usbh_ctlreq.c ****   * @param  buf: Buffer where the parsed descriptor stored
 461:./Libraries/STM32_USB_Host_Library/Core/Src/usbh_ctlreq.c ****   * @retval None
 462:./Libraries/STM32_USB_Host_Library/Core/Src/usbh_ctlreq.c ****   */
 463:./Libraries/STM32_USB_Host_Library/Core/Src/usbh_ctlreq.c **** static void  USBH_ParseEPDesc(USBH_EpDescTypeDef  *ep_descriptor,
 464:./Libraries/STM32_USB_Host_Library/Core/Src/usbh_ctlreq.c ****                               uint8_t *buf)
 465:./Libraries/STM32_USB_Host_Library/Core/Src/usbh_ctlreq.c **** {
 466:./Libraries/STM32_USB_Host_Library/Core/Src/usbh_ctlreq.c ****   ep_descriptor->bLength          = *(uint8_t *)(buf + 0);
 467:./Libraries/STM32_USB_Host_Library/Core/Src/usbh_ctlreq.c ****   ep_descriptor->bDescriptorType  = *(uint8_t *)(buf + 1);
 468:./Libraries/STM32_USB_Host_Library/Core/Src/usbh_ctlreq.c ****   ep_descriptor->bEndpointAddress = *(uint8_t *)(buf + 2);
 469:./Libraries/STM32_USB_Host_Library/Core/Src/usbh_ctlreq.c ****   ep_descriptor->bmAttributes     = *(uint8_t *)(buf + 3);
 470:./Libraries/STM32_USB_Host_Library/Core/Src/usbh_ctlreq.c ****   ep_descriptor->wMaxPacketSize   = LE16(buf + 4);
 471:./Libraries/STM32_USB_Host_Library/Core/Src/usbh_ctlreq.c ****   ep_descriptor->bInterval        = *(uint8_t *)(buf + 6);
 472:./Libraries/STM32_USB_Host_Library/Core/Src/usbh_ctlreq.c **** }
 473:./Libraries/STM32_USB_Host_Library/Core/Src/usbh_ctlreq.c **** 
 474:./Libraries/STM32_USB_Host_Library/Core/Src/usbh_ctlreq.c **** 
 475:./Libraries/STM32_USB_Host_Library/Core/Src/usbh_ctlreq.c **** /**
 476:./Libraries/STM32_USB_Host_Library/Core/Src/usbh_ctlreq.c ****   * @brief  USBH_ParseStringDesc
 477:./Libraries/STM32_USB_Host_Library/Core/Src/usbh_ctlreq.c ****   *         This function Parses the string descriptor
 478:./Libraries/STM32_USB_Host_Library/Core/Src/usbh_ctlreq.c ****   * @param  psrc: Source pointer containing the descriptor data
 479:./Libraries/STM32_USB_Host_Library/Core/Src/usbh_ctlreq.c ****   * @param  pdest: Destination address pointer
 480:./Libraries/STM32_USB_Host_Library/Core/Src/usbh_ctlreq.c ****   * @param  length: Length of the descriptor
 481:./Libraries/STM32_USB_Host_Library/Core/Src/usbh_ctlreq.c ****   * @retval None
 482:./Libraries/STM32_USB_Host_Library/Core/Src/usbh_ctlreq.c ****   */
 483:./Libraries/STM32_USB_Host_Library/Core/Src/usbh_ctlreq.c **** static void USBH_ParseStringDesc(uint8_t *psrc, uint8_t *pdest, uint16_t length)
 484:./Libraries/STM32_USB_Host_Library/Core/Src/usbh_ctlreq.c **** {
 485:./Libraries/STM32_USB_Host_Library/Core/Src/usbh_ctlreq.c ****   uint16_t strlength;
ARM GAS  /tmp/ccOpRQ1g.s 			page 10


 486:./Libraries/STM32_USB_Host_Library/Core/Src/usbh_ctlreq.c ****   uint16_t idx;
 487:./Libraries/STM32_USB_Host_Library/Core/Src/usbh_ctlreq.c **** 
 488:./Libraries/STM32_USB_Host_Library/Core/Src/usbh_ctlreq.c ****   /* The UNICODE string descriptor is not NULL-terminated. The string length is
 489:./Libraries/STM32_USB_Host_Library/Core/Src/usbh_ctlreq.c ****   computed by substracting two from the value of the first byte of the descriptor.
 490:./Libraries/STM32_USB_Host_Library/Core/Src/usbh_ctlreq.c ****   */
 491:./Libraries/STM32_USB_Host_Library/Core/Src/usbh_ctlreq.c **** 
 492:./Libraries/STM32_USB_Host_Library/Core/Src/usbh_ctlreq.c ****   /* Check which is lower size, the Size of string or the length of bytes read
 493:./Libraries/STM32_USB_Host_Library/Core/Src/usbh_ctlreq.c ****   from the device */
 494:./Libraries/STM32_USB_Host_Library/Core/Src/usbh_ctlreq.c **** 
 495:./Libraries/STM32_USB_Host_Library/Core/Src/usbh_ctlreq.c ****   if (psrc[1] == USB_DESC_TYPE_STRING)
 496:./Libraries/STM32_USB_Host_Library/Core/Src/usbh_ctlreq.c ****   {
 497:./Libraries/STM32_USB_Host_Library/Core/Src/usbh_ctlreq.c ****     /* Make sure the Descriptor is String Type */
 498:./Libraries/STM32_USB_Host_Library/Core/Src/usbh_ctlreq.c **** 
 499:./Libraries/STM32_USB_Host_Library/Core/Src/usbh_ctlreq.c ****     /* psrc[0] contains Size of Descriptor, subtract 2 to get the length of string */
 500:./Libraries/STM32_USB_Host_Library/Core/Src/usbh_ctlreq.c ****     strlength = ((((uint16_t)psrc[0] - 2U) <= length) ? ((uint16_t)psrc[0] - 2U) : length);
 501:./Libraries/STM32_USB_Host_Library/Core/Src/usbh_ctlreq.c **** 
 502:./Libraries/STM32_USB_Host_Library/Core/Src/usbh_ctlreq.c ****     /* Adjust the offset ignoring the String Len and Descriptor type */
 503:./Libraries/STM32_USB_Host_Library/Core/Src/usbh_ctlreq.c ****     psrc += 2U;
 504:./Libraries/STM32_USB_Host_Library/Core/Src/usbh_ctlreq.c **** 
 505:./Libraries/STM32_USB_Host_Library/Core/Src/usbh_ctlreq.c ****     for (idx = 0U; idx < strlength; idx += 2U)
 506:./Libraries/STM32_USB_Host_Library/Core/Src/usbh_ctlreq.c ****     {
 507:./Libraries/STM32_USB_Host_Library/Core/Src/usbh_ctlreq.c ****       /* Copy Only the string and ignore the UNICODE ID, hence add the src */
 508:./Libraries/STM32_USB_Host_Library/Core/Src/usbh_ctlreq.c ****       *pdest =  psrc[idx];
 509:./Libraries/STM32_USB_Host_Library/Core/Src/usbh_ctlreq.c ****       pdest++;
 510:./Libraries/STM32_USB_Host_Library/Core/Src/usbh_ctlreq.c ****     }
 511:./Libraries/STM32_USB_Host_Library/Core/Src/usbh_ctlreq.c ****     *pdest = 0U; /* mark end of string */
 512:./Libraries/STM32_USB_Host_Library/Core/Src/usbh_ctlreq.c ****   }
 513:./Libraries/STM32_USB_Host_Library/Core/Src/usbh_ctlreq.c **** }
 514:./Libraries/STM32_USB_Host_Library/Core/Src/usbh_ctlreq.c **** 
 515:./Libraries/STM32_USB_Host_Library/Core/Src/usbh_ctlreq.c **** 
 516:./Libraries/STM32_USB_Host_Library/Core/Src/usbh_ctlreq.c **** /**
 517:./Libraries/STM32_USB_Host_Library/Core/Src/usbh_ctlreq.c ****   * @brief  USBH_GetNextDesc
 518:./Libraries/STM32_USB_Host_Library/Core/Src/usbh_ctlreq.c ****   *         This function return the next descriptor header
 519:./Libraries/STM32_USB_Host_Library/Core/Src/usbh_ctlreq.c ****   * @param  buf: Buffer where the cfg descriptor is available
 520:./Libraries/STM32_USB_Host_Library/Core/Src/usbh_ctlreq.c ****   * @param  ptr: data pointer inside the cfg descriptor
 521:./Libraries/STM32_USB_Host_Library/Core/Src/usbh_ctlreq.c ****   * @retval next header
 522:./Libraries/STM32_USB_Host_Library/Core/Src/usbh_ctlreq.c ****   */
 523:./Libraries/STM32_USB_Host_Library/Core/Src/usbh_ctlreq.c **** USBH_DescHeader_t  *USBH_GetNextDesc(uint8_t   *pbuf, uint16_t  *ptr)
 524:./Libraries/STM32_USB_Host_Library/Core/Src/usbh_ctlreq.c **** {
  30              		.loc 1 524 1 view -0
  31              		.cfi_startproc
  32              		@ args = 0, pretend = 0, frame = 0
  33              		@ frame_needed = 0, uses_anonymous_args = 0
  34              		@ link register save eliminated.
 525:./Libraries/STM32_USB_Host_Library/Core/Src/usbh_ctlreq.c ****   USBH_DescHeader_t  *pnext;
  35              		.loc 1 525 3 view .LVU1
 526:./Libraries/STM32_USB_Host_Library/Core/Src/usbh_ctlreq.c **** 
 527:./Libraries/STM32_USB_Host_Library/Core/Src/usbh_ctlreq.c ****   *ptr += ((USBH_DescHeader_t *)(void *)pbuf)->bLength;
  36              		.loc 1 527 3 view .LVU2
  37              		.loc 1 527 46 is_stmt 0 view .LVU3
  38 0000 0378     		ldrb	r3, [r0]	@ zero_extendqisi2
  39              		.loc 1 527 8 view .LVU4
  40 0002 0A88     		ldrh	r2, [r1]
 528:./Libraries/STM32_USB_Host_Library/Core/Src/usbh_ctlreq.c ****   pnext = (USBH_DescHeader_t *)(void *)((uint8_t *)(void *)pbuf + \
 529:./Libraries/STM32_USB_Host_Library/Core/Src/usbh_ctlreq.c ****                                         ((USBH_DescHeader_t *)(void *)pbuf)->bLength);
 530:./Libraries/STM32_USB_Host_Library/Core/Src/usbh_ctlreq.c **** 
 531:./Libraries/STM32_USB_Host_Library/Core/Src/usbh_ctlreq.c ****   return (pnext);
ARM GAS  /tmp/ccOpRQ1g.s 			page 11


 532:./Libraries/STM32_USB_Host_Library/Core/Src/usbh_ctlreq.c **** }
  41              		.loc 1 532 1 view .LVU5
  42 0004 1844     		add	r0, r0, r3
  43              	.LVL1:
 527:./Libraries/STM32_USB_Host_Library/Core/Src/usbh_ctlreq.c ****   pnext = (USBH_DescHeader_t *)(void *)((uint8_t *)(void *)pbuf + \
  44              		.loc 1 527 8 view .LVU6
  45 0006 1344     		add	r3, r3, r2
  46 0008 0B80     		strh	r3, [r1]	@ movhi
 528:./Libraries/STM32_USB_Host_Library/Core/Src/usbh_ctlreq.c ****   pnext = (USBH_DescHeader_t *)(void *)((uint8_t *)(void *)pbuf + \
  47              		.loc 1 528 3 is_stmt 1 view .LVU7
  48              	.LVL2:
 531:./Libraries/STM32_USB_Host_Library/Core/Src/usbh_ctlreq.c **** }
  49              		.loc 1 531 3 view .LVU8
  50              		.loc 1 532 1 is_stmt 0 view .LVU9
  51 000a 7047     		bx	lr
  52              		.cfi_endproc
  53              	.LFE352:
  55              		.section	.text.USBH_CtlReq,"ax",%progbits
  56              		.align	1
  57              		.p2align 2,,3
  58              		.global	USBH_CtlReq
  59              		.syntax unified
  60              		.thumb
  61              		.thumb_func
  62              		.fpu fpv5-d16
  64              	USBH_CtlReq:
  65              	.LVL3:
  66              	.LFB353:
 533:./Libraries/STM32_USB_Host_Library/Core/Src/usbh_ctlreq.c **** 
 534:./Libraries/STM32_USB_Host_Library/Core/Src/usbh_ctlreq.c **** 
 535:./Libraries/STM32_USB_Host_Library/Core/Src/usbh_ctlreq.c **** /**
 536:./Libraries/STM32_USB_Host_Library/Core/Src/usbh_ctlreq.c ****   * @brief  USBH_CtlReq
 537:./Libraries/STM32_USB_Host_Library/Core/Src/usbh_ctlreq.c ****   *         USBH_CtlReq sends a control request and provide the status after
 538:./Libraries/STM32_USB_Host_Library/Core/Src/usbh_ctlreq.c ****   *            completion of the request
 539:./Libraries/STM32_USB_Host_Library/Core/Src/usbh_ctlreq.c ****   * @param  phost: Host Handle
 540:./Libraries/STM32_USB_Host_Library/Core/Src/usbh_ctlreq.c ****   * @param  req: Setup Request Structure
 541:./Libraries/STM32_USB_Host_Library/Core/Src/usbh_ctlreq.c ****   * @param  buff: data buffer address to store the response
 542:./Libraries/STM32_USB_Host_Library/Core/Src/usbh_ctlreq.c ****   * @param  length: length of the response
 543:./Libraries/STM32_USB_Host_Library/Core/Src/usbh_ctlreq.c ****   * @retval USBH Status
 544:./Libraries/STM32_USB_Host_Library/Core/Src/usbh_ctlreq.c ****   */
 545:./Libraries/STM32_USB_Host_Library/Core/Src/usbh_ctlreq.c **** USBH_StatusTypeDef USBH_CtlReq(USBH_HandleTypeDef *phost, uint8_t *buff,
 546:./Libraries/STM32_USB_Host_Library/Core/Src/usbh_ctlreq.c ****                                uint16_t length)
 547:./Libraries/STM32_USB_Host_Library/Core/Src/usbh_ctlreq.c **** {
  67              		.loc 1 547 1 is_stmt 1 view -0
  68              		.cfi_startproc
  69              		@ args = 0, pretend = 0, frame = 0
  70              		@ frame_needed = 0, uses_anonymous_args = 0
  71              		.loc 1 547 1 is_stmt 0 view .LVU11
  72 0000 F0B5     		push	{r4, r5, r6, r7, lr}
  73              	.LCFI0:
  74              		.cfi_def_cfa_offset 20
  75              		.cfi_offset 4, -20
  76              		.cfi_offset 5, -16
  77              		.cfi_offset 6, -12
  78              		.cfi_offset 7, -8
  79              		.cfi_offset 14, -4
 548:./Libraries/STM32_USB_Host_Library/Core/Src/usbh_ctlreq.c ****   USBH_StatusTypeDef status;
ARM GAS  /tmp/ccOpRQ1g.s 			page 12


 549:./Libraries/STM32_USB_Host_Library/Core/Src/usbh_ctlreq.c ****   status = USBH_BUSY;
 550:./Libraries/STM32_USB_Host_Library/Core/Src/usbh_ctlreq.c **** 
 551:./Libraries/STM32_USB_Host_Library/Core/Src/usbh_ctlreq.c ****   switch (phost->RequestState)
  80              		.loc 1 551 16 view .LVU12
  81 0002 8578     		ldrb	r5, [r0, #2]	@ zero_extendqisi2
 547:./Libraries/STM32_USB_Host_Library/Core/Src/usbh_ctlreq.c ****   USBH_StatusTypeDef status;
  82              		.loc 1 547 1 view .LVU13
  83 0004 83B0     		sub	sp, sp, #12
  84              	.LCFI1:
  85              		.cfi_def_cfa_offset 32
 547:./Libraries/STM32_USB_Host_Library/Core/Src/usbh_ctlreq.c ****   USBH_StatusTypeDef status;
  86              		.loc 1 547 1 view .LVU14
  87 0006 0446     		mov	r4, r0
 548:./Libraries/STM32_USB_Host_Library/Core/Src/usbh_ctlreq.c ****   USBH_StatusTypeDef status;
  88              		.loc 1 548 3 is_stmt 1 view .LVU15
 549:./Libraries/STM32_USB_Host_Library/Core/Src/usbh_ctlreq.c **** 
  89              		.loc 1 549 3 view .LVU16
  90              	.LVL4:
  91              		.loc 1 551 3 view .LVU17
  92 0008 012D     		cmp	r5, #1
  93 000a 11D0     		beq	.L4
  94 000c 022D     		cmp	r5, #2
  95 000e 0BD1     		bne	.L49
  96              	.LVL5:
  97              	.LBB22:
  98              	.LBI22:
 545:./Libraries/STM32_USB_Host_Library/Core/Src/usbh_ctlreq.c ****                                uint16_t length)
  99              		.loc 1 545 20 view .LVU18
 100              	.LBB23:
 552:./Libraries/STM32_USB_Host_Library/Core/Src/usbh_ctlreq.c ****   {
 553:./Libraries/STM32_USB_Host_Library/Core/Src/usbh_ctlreq.c ****     case CMD_SEND:
 554:./Libraries/STM32_USB_Host_Library/Core/Src/usbh_ctlreq.c ****       /* Start a SETUP transfer */
 555:./Libraries/STM32_USB_Host_Library/Core/Src/usbh_ctlreq.c ****       phost->Control.buff = buff;
 556:./Libraries/STM32_USB_Host_Library/Core/Src/usbh_ctlreq.c ****       phost->Control.length = length;
 557:./Libraries/STM32_USB_Host_Library/Core/Src/usbh_ctlreq.c ****       phost->Control.state = CTRL_SETUP;
 558:./Libraries/STM32_USB_Host_Library/Core/Src/usbh_ctlreq.c ****       phost->RequestState = CMD_WAIT;
 559:./Libraries/STM32_USB_Host_Library/Core/Src/usbh_ctlreq.c ****       status = USBH_BUSY;
 560:./Libraries/STM32_USB_Host_Library/Core/Src/usbh_ctlreq.c **** 
 561:./Libraries/STM32_USB_Host_Library/Core/Src/usbh_ctlreq.c **** #if (USBH_USE_OS == 1U)
 562:./Libraries/STM32_USB_Host_Library/Core/Src/usbh_ctlreq.c ****       phost->os_msg = (uint32_t)USBH_CONTROL_EVENT;
 563:./Libraries/STM32_USB_Host_Library/Core/Src/usbh_ctlreq.c **** #if (osCMSIS < 0x20000U)
 564:./Libraries/STM32_USB_Host_Library/Core/Src/usbh_ctlreq.c ****       (void)osMessagePut(phost->os_event, phost->os_msg, 0U);
 565:./Libraries/STM32_USB_Host_Library/Core/Src/usbh_ctlreq.c **** #else
 566:./Libraries/STM32_USB_Host_Library/Core/Src/usbh_ctlreq.c ****       (void)osMessageQueuePut(phost->os_event, &phost->os_msg, 0U, NULL);
 567:./Libraries/STM32_USB_Host_Library/Core/Src/usbh_ctlreq.c **** #endif
 568:./Libraries/STM32_USB_Host_Library/Core/Src/usbh_ctlreq.c **** #endif
 569:./Libraries/STM32_USB_Host_Library/Core/Src/usbh_ctlreq.c ****       break;
 570:./Libraries/STM32_USB_Host_Library/Core/Src/usbh_ctlreq.c **** 
 571:./Libraries/STM32_USB_Host_Library/Core/Src/usbh_ctlreq.c ****     case CMD_WAIT:
 572:./Libraries/STM32_USB_Host_Library/Core/Src/usbh_ctlreq.c ****       status = USBH_HandleControl(phost);
 101              		.loc 1 572 7 view .LVU19
 102              	.LBB24:
 103              	.LBI24:
 573:./Libraries/STM32_USB_Host_Library/Core/Src/usbh_ctlreq.c ****       if ((status == USBH_OK) || (status == USBH_NOT_SUPPORTED))
 574:./Libraries/STM32_USB_Host_Library/Core/Src/usbh_ctlreq.c ****       {
 575:./Libraries/STM32_USB_Host_Library/Core/Src/usbh_ctlreq.c ****         /* Transaction completed, move control state to idle */
 576:./Libraries/STM32_USB_Host_Library/Core/Src/usbh_ctlreq.c ****         phost->RequestState = CMD_SEND;
ARM GAS  /tmp/ccOpRQ1g.s 			page 13


 577:./Libraries/STM32_USB_Host_Library/Core/Src/usbh_ctlreq.c ****         phost->Control.state = CTRL_IDLE;
 578:./Libraries/STM32_USB_Host_Library/Core/Src/usbh_ctlreq.c ****       }
 579:./Libraries/STM32_USB_Host_Library/Core/Src/usbh_ctlreq.c ****       else if (status == USBH_FAIL)
 580:./Libraries/STM32_USB_Host_Library/Core/Src/usbh_ctlreq.c ****       {
 581:./Libraries/STM32_USB_Host_Library/Core/Src/usbh_ctlreq.c ****         /* Failure Mode */
 582:./Libraries/STM32_USB_Host_Library/Core/Src/usbh_ctlreq.c ****         phost->RequestState = CMD_SEND;
 583:./Libraries/STM32_USB_Host_Library/Core/Src/usbh_ctlreq.c ****       }
 584:./Libraries/STM32_USB_Host_Library/Core/Src/usbh_ctlreq.c ****       else
 585:./Libraries/STM32_USB_Host_Library/Core/Src/usbh_ctlreq.c ****       {
 586:./Libraries/STM32_USB_Host_Library/Core/Src/usbh_ctlreq.c ****         /* .. */
 587:./Libraries/STM32_USB_Host_Library/Core/Src/usbh_ctlreq.c ****       }
 588:./Libraries/STM32_USB_Host_Library/Core/Src/usbh_ctlreq.c **** #if (USBH_USE_OS == 1U)
 589:./Libraries/STM32_USB_Host_Library/Core/Src/usbh_ctlreq.c ****       phost->os_msg = (uint32_t)USBH_CONTROL_EVENT;
 590:./Libraries/STM32_USB_Host_Library/Core/Src/usbh_ctlreq.c **** #if (osCMSIS < 0x20000U)
 591:./Libraries/STM32_USB_Host_Library/Core/Src/usbh_ctlreq.c ****       (void)osMessagePut(phost->os_event, phost->os_msg, 0U);
 592:./Libraries/STM32_USB_Host_Library/Core/Src/usbh_ctlreq.c **** #else
 593:./Libraries/STM32_USB_Host_Library/Core/Src/usbh_ctlreq.c ****       (void)osMessageQueuePut(phost->os_event, &phost->os_msg, 0U, NULL);
 594:./Libraries/STM32_USB_Host_Library/Core/Src/usbh_ctlreq.c **** #endif
 595:./Libraries/STM32_USB_Host_Library/Core/Src/usbh_ctlreq.c **** #endif
 596:./Libraries/STM32_USB_Host_Library/Core/Src/usbh_ctlreq.c ****       break;
 597:./Libraries/STM32_USB_Host_Library/Core/Src/usbh_ctlreq.c **** 
 598:./Libraries/STM32_USB_Host_Library/Core/Src/usbh_ctlreq.c ****     default:
 599:./Libraries/STM32_USB_Host_Library/Core/Src/usbh_ctlreq.c ****       break;
 600:./Libraries/STM32_USB_Host_Library/Core/Src/usbh_ctlreq.c ****   }
 601:./Libraries/STM32_USB_Host_Library/Core/Src/usbh_ctlreq.c ****   return status;
 602:./Libraries/STM32_USB_Host_Library/Core/Src/usbh_ctlreq.c **** }
 603:./Libraries/STM32_USB_Host_Library/Core/Src/usbh_ctlreq.c **** 
 604:./Libraries/STM32_USB_Host_Library/Core/Src/usbh_ctlreq.c **** 
 605:./Libraries/STM32_USB_Host_Library/Core/Src/usbh_ctlreq.c **** /**
 606:./Libraries/STM32_USB_Host_Library/Core/Src/usbh_ctlreq.c ****   * @brief  USBH_HandleControl
 607:./Libraries/STM32_USB_Host_Library/Core/Src/usbh_ctlreq.c ****   *         Handles the USB control transfer state machine
 608:./Libraries/STM32_USB_Host_Library/Core/Src/usbh_ctlreq.c ****   * @param  phost: Host Handle
 609:./Libraries/STM32_USB_Host_Library/Core/Src/usbh_ctlreq.c ****   * @retval USBH Status
 610:./Libraries/STM32_USB_Host_Library/Core/Src/usbh_ctlreq.c ****   */
 611:./Libraries/STM32_USB_Host_Library/Core/Src/usbh_ctlreq.c **** static USBH_StatusTypeDef USBH_HandleControl(USBH_HandleTypeDef *phost)
 104              		.loc 1 611 27 view .LVU20
 105              	.LBB25:
 612:./Libraries/STM32_USB_Host_Library/Core/Src/usbh_ctlreq.c **** {
 613:./Libraries/STM32_USB_Host_Library/Core/Src/usbh_ctlreq.c ****   uint8_t direction;
 106              		.loc 1 613 3 view .LVU21
 614:./Libraries/STM32_USB_Host_Library/Core/Src/usbh_ctlreq.c ****   USBH_StatusTypeDef status = USBH_BUSY;
 107              		.loc 1 614 3 view .LVU22
 615:./Libraries/STM32_USB_Host_Library/Core/Src/usbh_ctlreq.c ****   USBH_URBStateTypeDef URB_Status = USBH_URB_IDLE;
 108              		.loc 1 615 3 view .LVU23
 616:./Libraries/STM32_USB_Host_Library/Core/Src/usbh_ctlreq.c **** 
 617:./Libraries/STM32_USB_Host_Library/Core/Src/usbh_ctlreq.c ****   switch (phost->Control.state)
 109              		.loc 1 617 3 view .LVU24
 110              		.loc 1 617 25 is_stmt 0 view .LVU25
 111 0010 067E     		ldrb	r6, [r0, #24]	@ zero_extendqisi2
 112 0012 731E     		subs	r3, r6, #1
 113 0014 0A2B     		cmp	r3, #10
 114 0016 29D8     		bhi	.L28
 115 0018 DFE803F0 		tbb	[pc, r3]
 116              	.LVL6:
 117              	.L9:
 118 001c E0       		.byte	(.L19-.L9)/2
 119 001d 1D       		.byte	(.L18-.L9)/2
ARM GAS  /tmp/ccOpRQ1g.s 			page 14


 120 001e D2       		.byte	(.L17-.L9)/2
 121 001f C6       		.byte	(.L16-.L9)/2
 122 0020 B7       		.byte	(.L15-.L9)/2
 123 0021 98       		.byte	(.L14-.L9)/2
 124 0022 8A       		.byte	(.L13-.L9)/2
 125 0023 70       		.byte	(.L12-.L9)/2
 126 0024 61       		.byte	(.L11-.L9)/2
 127 0025 46       		.byte	(.L10-.L9)/2
 128 0026 38       		.byte	(.L8-.L9)/2
 129 0027 00       		.p2align 1
 130              	.L49:
 131              		.loc 1 617 25 view .LVU26
 132              	.LBE25:
 133              	.LBE24:
 134              	.LBE23:
 135              	.LBE22:
 551:./Libraries/STM32_USB_Host_Library/Core/Src/usbh_ctlreq.c ****   {
 136              		.loc 1 551 3 view .LVU27
 137 0028 0125     		movs	r5, #1
 602:./Libraries/STM32_USB_Host_Library/Core/Src/usbh_ctlreq.c **** 
 138              		.loc 1 602 1 view .LVU28
 139 002a 2846     		mov	r0, r5
 140              	.LVL7:
 602:./Libraries/STM32_USB_Host_Library/Core/Src/usbh_ctlreq.c **** 
 141              		.loc 1 602 1 view .LVU29
 142 002c 03B0     		add	sp, sp, #12
 143              	.LCFI2:
 144              		.cfi_remember_state
 145              		.cfi_def_cfa_offset 20
 146              		@ sp needed
 147 002e F0BD     		pop	{r4, r5, r6, r7, pc}
 148              	.LVL8:
 149              	.L4:
 150              	.LCFI3:
 151              		.cfi_restore_state
 555:./Libraries/STM32_USB_Host_Library/Core/Src/usbh_ctlreq.c ****       phost->Control.length = length;
 152              		.loc 1 555 7 is_stmt 1 view .LVU30
 566:./Libraries/STM32_USB_Host_Library/Core/Src/usbh_ctlreq.c **** #endif
 153              		.loc 1 566 13 is_stmt 0 view .LVU31
 154 0030 0023     		movs	r3, #0
 558:./Libraries/STM32_USB_Host_Library/Core/Src/usbh_ctlreq.c ****       status = USBH_BUSY;
 155              		.loc 1 558 27 view .LVU32
 156 0032 0226     		movs	r6, #2
 562:./Libraries/STM32_USB_Host_Library/Core/Src/usbh_ctlreq.c **** #if (osCMSIS < 0x20000U)
 157              		.loc 1 562 21 view .LVU33
 158 0034 0320     		movs	r0, #3
 159              	.LVL9:
 555:./Libraries/STM32_USB_Host_Library/Core/Src/usbh_ctlreq.c ****       phost->Control.length = length;
 160              		.loc 1 555 27 view .LVU34
 161 0036 A160     		str	r1, [r4, #8]
 556:./Libraries/STM32_USB_Host_Library/Core/Src/usbh_ctlreq.c ****       phost->Control.state = CTRL_SETUP;
 162              		.loc 1 556 7 is_stmt 1 view .LVU35
 556:./Libraries/STM32_USB_Host_Library/Core/Src/usbh_ctlreq.c ****       phost->Control.state = CTRL_SETUP;
 163              		.loc 1 556 29 is_stmt 0 view .LVU36
 164 0038 A281     		strh	r2, [r4, #12]	@ movhi
 557:./Libraries/STM32_USB_Host_Library/Core/Src/usbh_ctlreq.c ****       phost->RequestState = CMD_WAIT;
 165              		.loc 1 557 7 is_stmt 1 view .LVU37
ARM GAS  /tmp/ccOpRQ1g.s 			page 15


 566:./Libraries/STM32_USB_Host_Library/Core/Src/usbh_ctlreq.c **** #endif
 166              		.loc 1 566 13 is_stmt 0 view .LVU38
 167 003a 04F59C61 		add	r1, r4, #1248
 168              	.LVL10:
 562:./Libraries/STM32_USB_Host_Library/Core/Src/usbh_ctlreq.c **** #if (osCMSIS < 0x20000U)
 169              		.loc 1 562 21 view .LVU39
 170 003e C4F8E004 		str	r0, [r4, #1248]
 566:./Libraries/STM32_USB_Host_Library/Core/Src/usbh_ctlreq.c **** #endif
 171              		.loc 1 566 13 view .LVU40
 172 0042 1A46     		mov	r2, r3
 173              	.LVL11:
 566:./Libraries/STM32_USB_Host_Library/Core/Src/usbh_ctlreq.c **** #endif
 174              		.loc 1 566 13 view .LVU41
 175 0044 D4F8D804 		ldr	r0, [r4, #1240]
 557:./Libraries/STM32_USB_Host_Library/Core/Src/usbh_ctlreq.c ****       phost->RequestState = CMD_WAIT;
 176              		.loc 1 557 28 view .LVU42
 177 0048 2576     		strb	r5, [r4, #24]
 558:./Libraries/STM32_USB_Host_Library/Core/Src/usbh_ctlreq.c ****       status = USBH_BUSY;
 178              		.loc 1 558 7 is_stmt 1 view .LVU43
 558:./Libraries/STM32_USB_Host_Library/Core/Src/usbh_ctlreq.c ****       status = USBH_BUSY;
 179              		.loc 1 558 27 is_stmt 0 view .LVU44
 180 004a A670     		strb	r6, [r4, #2]
 559:./Libraries/STM32_USB_Host_Library/Core/Src/usbh_ctlreq.c **** 
 181              		.loc 1 559 7 is_stmt 1 view .LVU45
 562:./Libraries/STM32_USB_Host_Library/Core/Src/usbh_ctlreq.c **** #if (osCMSIS < 0x20000U)
 182              		.loc 1 562 7 view .LVU46
 566:./Libraries/STM32_USB_Host_Library/Core/Src/usbh_ctlreq.c **** #endif
 183              		.loc 1 566 7 view .LVU47
 566:./Libraries/STM32_USB_Host_Library/Core/Src/usbh_ctlreq.c **** #endif
 184              		.loc 1 566 13 is_stmt 0 view .LVU48
 185 004c FFF7FEFF 		bl	osMessageQueuePut
 186              	.LVL12:
 569:./Libraries/STM32_USB_Host_Library/Core/Src/usbh_ctlreq.c **** 
 187              		.loc 1 569 7 is_stmt 1 view .LVU49
 602:./Libraries/STM32_USB_Host_Library/Core/Src/usbh_ctlreq.c **** 
 188              		.loc 1 602 1 is_stmt 0 view .LVU50
 189 0050 2846     		mov	r0, r5
 190 0052 03B0     		add	sp, sp, #12
 191              	.LCFI4:
 192              		.cfi_remember_state
 193              		.cfi_def_cfa_offset 20
 194              		@ sp needed
 195 0054 F0BD     		pop	{r4, r5, r6, r7, pc}
 196              	.LVL13:
 197              	.L18:
 198              	.LCFI5:
 199              		.cfi_restore_state
 200              	.LBB56:
 201              	.LBB54:
 202              	.LBB40:
 203              	.LBB26:
 618:./Libraries/STM32_USB_Host_Library/Core/Src/usbh_ctlreq.c ****   {
 619:./Libraries/STM32_USB_Host_Library/Core/Src/usbh_ctlreq.c ****     case CTRL_SETUP:
 620:./Libraries/STM32_USB_Host_Library/Core/Src/usbh_ctlreq.c ****       /* send a SETUP packet */
 621:./Libraries/STM32_USB_Host_Library/Core/Src/usbh_ctlreq.c ****       USBH_CtlSendSetup(phost, (uint8_t *)(void *)phost->Control.setup.d8,
 622:./Libraries/STM32_USB_Host_Library/Core/Src/usbh_ctlreq.c ****                         phost->Control.pipe_out);
 623:./Libraries/STM32_USB_Host_Library/Core/Src/usbh_ctlreq.c **** 
ARM GAS  /tmp/ccOpRQ1g.s 			page 16


 624:./Libraries/STM32_USB_Host_Library/Core/Src/usbh_ctlreq.c ****       phost->Control.state = CTRL_SETUP_WAIT;
 625:./Libraries/STM32_USB_Host_Library/Core/Src/usbh_ctlreq.c ****       break;
 626:./Libraries/STM32_USB_Host_Library/Core/Src/usbh_ctlreq.c **** 
 627:./Libraries/STM32_USB_Host_Library/Core/Src/usbh_ctlreq.c ****     case CTRL_SETUP_WAIT:
 628:./Libraries/STM32_USB_Host_Library/Core/Src/usbh_ctlreq.c **** 
 629:./Libraries/STM32_USB_Host_Library/Core/Src/usbh_ctlreq.c ****       URB_Status = USBH_LL_GetURBState(phost, phost->Control.pipe_out);
 204              		.loc 1 629 7 is_stmt 1 view .LVU51
 205              		.loc 1 629 20 is_stmt 0 view .LVU52
 206 0056 4179     		ldrb	r1, [r0, #5]	@ zero_extendqisi2
 207              	.LVL14:
 208              		.loc 1 629 20 view .LVU53
 209 0058 FFF7FEFF 		bl	USBH_LL_GetURBState
 210              	.LVL15:
 630:./Libraries/STM32_USB_Host_Library/Core/Src/usbh_ctlreq.c ****       /* case SETUP packet sent successfully */
 631:./Libraries/STM32_USB_Host_Library/Core/Src/usbh_ctlreq.c ****       if (URB_Status == USBH_URB_DONE)
 211              		.loc 1 631 10 view .LVU54
 212 005c 0128     		cmp	r0, #1
 629:./Libraries/STM32_USB_Host_Library/Core/Src/usbh_ctlreq.c ****       /* case SETUP packet sent successfully */
 213              		.loc 1 629 20 view .LVU55
 214 005e 0546     		mov	r5, r0
 215              	.LVL16:
 216              		.loc 1 631 7 is_stmt 1 view .LVU56
 217              		.loc 1 631 10 is_stmt 0 view .LVU57
 218 0060 00F0E980 		beq	.L50
 632:./Libraries/STM32_USB_Host_Library/Core/Src/usbh_ctlreq.c ****       {
 633:./Libraries/STM32_USB_Host_Library/Core/Src/usbh_ctlreq.c ****         direction = (phost->Control.setup.b.bmRequestType & USB_REQ_DIR_MASK);
 634:./Libraries/STM32_USB_Host_Library/Core/Src/usbh_ctlreq.c **** 
 635:./Libraries/STM32_USB_Host_Library/Core/Src/usbh_ctlreq.c ****         /* check if there is a data stage */
 636:./Libraries/STM32_USB_Host_Library/Core/Src/usbh_ctlreq.c ****         if (phost->Control.setup.b.wLength.w != 0U)
 637:./Libraries/STM32_USB_Host_Library/Core/Src/usbh_ctlreq.c ****         {
 638:./Libraries/STM32_USB_Host_Library/Core/Src/usbh_ctlreq.c ****           if (direction == USB_D2H)
 639:./Libraries/STM32_USB_Host_Library/Core/Src/usbh_ctlreq.c ****           {
 640:./Libraries/STM32_USB_Host_Library/Core/Src/usbh_ctlreq.c ****             /* Data Direction is IN */
 641:./Libraries/STM32_USB_Host_Library/Core/Src/usbh_ctlreq.c ****             phost->Control.state = CTRL_DATA_IN;
 642:./Libraries/STM32_USB_Host_Library/Core/Src/usbh_ctlreq.c ****           }
 643:./Libraries/STM32_USB_Host_Library/Core/Src/usbh_ctlreq.c ****           else
 644:./Libraries/STM32_USB_Host_Library/Core/Src/usbh_ctlreq.c ****           {
 645:./Libraries/STM32_USB_Host_Library/Core/Src/usbh_ctlreq.c ****             /* Data Direction is OUT */
 646:./Libraries/STM32_USB_Host_Library/Core/Src/usbh_ctlreq.c ****             phost->Control.state = CTRL_DATA_OUT;
 647:./Libraries/STM32_USB_Host_Library/Core/Src/usbh_ctlreq.c ****           }
 648:./Libraries/STM32_USB_Host_Library/Core/Src/usbh_ctlreq.c ****         }
 649:./Libraries/STM32_USB_Host_Library/Core/Src/usbh_ctlreq.c ****         /* No DATA stage */
 650:./Libraries/STM32_USB_Host_Library/Core/Src/usbh_ctlreq.c ****         else
 651:./Libraries/STM32_USB_Host_Library/Core/Src/usbh_ctlreq.c ****         {
 652:./Libraries/STM32_USB_Host_Library/Core/Src/usbh_ctlreq.c ****           /* If there is No Data Transfer Stage */
 653:./Libraries/STM32_USB_Host_Library/Core/Src/usbh_ctlreq.c ****           if (direction == USB_D2H)
 654:./Libraries/STM32_USB_Host_Library/Core/Src/usbh_ctlreq.c ****           {
 655:./Libraries/STM32_USB_Host_Library/Core/Src/usbh_ctlreq.c ****             /* Data Direction is IN */
 656:./Libraries/STM32_USB_Host_Library/Core/Src/usbh_ctlreq.c ****             phost->Control.state = CTRL_STATUS_OUT;
 657:./Libraries/STM32_USB_Host_Library/Core/Src/usbh_ctlreq.c ****           }
 658:./Libraries/STM32_USB_Host_Library/Core/Src/usbh_ctlreq.c ****           else
 659:./Libraries/STM32_USB_Host_Library/Core/Src/usbh_ctlreq.c ****           {
 660:./Libraries/STM32_USB_Host_Library/Core/Src/usbh_ctlreq.c ****             /* Data Direction is OUT */
 661:./Libraries/STM32_USB_Host_Library/Core/Src/usbh_ctlreq.c ****             phost->Control.state = CTRL_STATUS_IN;
 662:./Libraries/STM32_USB_Host_Library/Core/Src/usbh_ctlreq.c ****           }
 663:./Libraries/STM32_USB_Host_Library/Core/Src/usbh_ctlreq.c ****         }
 664:./Libraries/STM32_USB_Host_Library/Core/Src/usbh_ctlreq.c **** 
ARM GAS  /tmp/ccOpRQ1g.s 			page 17


 665:./Libraries/STM32_USB_Host_Library/Core/Src/usbh_ctlreq.c **** #if (USBH_USE_OS == 1U)
 666:./Libraries/STM32_USB_Host_Library/Core/Src/usbh_ctlreq.c ****         phost->os_msg = (uint32_t)USBH_CONTROL_EVENT;
 667:./Libraries/STM32_USB_Host_Library/Core/Src/usbh_ctlreq.c **** #if (osCMSIS < 0x20000U)
 668:./Libraries/STM32_USB_Host_Library/Core/Src/usbh_ctlreq.c ****         (void)osMessagePut(phost->os_event, phost->os_msg, 0U);
 669:./Libraries/STM32_USB_Host_Library/Core/Src/usbh_ctlreq.c **** #else
 670:./Libraries/STM32_USB_Host_Library/Core/Src/usbh_ctlreq.c ****         (void)osMessageQueuePut(phost->os_event, &phost->os_msg, 0U, NULL);
 671:./Libraries/STM32_USB_Host_Library/Core/Src/usbh_ctlreq.c **** #endif
 672:./Libraries/STM32_USB_Host_Library/Core/Src/usbh_ctlreq.c **** #endif
 673:./Libraries/STM32_USB_Host_Library/Core/Src/usbh_ctlreq.c ****       }
 674:./Libraries/STM32_USB_Host_Library/Core/Src/usbh_ctlreq.c ****       else
 675:./Libraries/STM32_USB_Host_Library/Core/Src/usbh_ctlreq.c ****       {
 676:./Libraries/STM32_USB_Host_Library/Core/Src/usbh_ctlreq.c ****         if ((URB_Status == USBH_URB_ERROR) || (URB_Status == USBH_URB_NOTREADY))
 219              		.loc 1 676 9 is_stmt 1 view .LVU58
 220              		.loc 1 676 12 is_stmt 0 view .LVU59
 221 0064 0428     		cmp	r0, #4
 222 0066 2AD0     		beq	.L46
 223 0068 0228     		cmp	r0, #2
 224 006a 28D0     		beq	.L46
 225              	.LVL17:
 226              	.L28:
 227              		.loc 1 676 12 view .LVU60
 228 006c 04F59C66 		add	r6, r4, #1248
 614:./Libraries/STM32_USB_Host_Library/Core/Src/usbh_ctlreq.c ****   USBH_URBStateTypeDef URB_Status = USBH_URB_IDLE;
 229              		.loc 1 614 22 view .LVU61
 230 0070 0125     		movs	r5, #1
 231              	.LVL18:
 232              	.L20:
 614:./Libraries/STM32_USB_Host_Library/Core/Src/usbh_ctlreq.c ****   USBH_URBStateTypeDef URB_Status = USBH_URB_IDLE;
 233              		.loc 1 614 22 view .LVU62
 234              	.LBE26:
 235              	.LBE40:
 587:./Libraries/STM32_USB_Host_Library/Core/Src/usbh_ctlreq.c **** #if (USBH_USE_OS == 1U)
 236              		.loc 1 587 7 is_stmt 1 view .LVU63
 589:./Libraries/STM32_USB_Host_Library/Core/Src/usbh_ctlreq.c **** #if (osCMSIS < 0x20000U)
 237              		.loc 1 589 7 view .LVU64
 593:./Libraries/STM32_USB_Host_Library/Core/Src/usbh_ctlreq.c **** #endif
 238              		.loc 1 593 13 is_stmt 0 view .LVU65
 239 0072 0023     		movs	r3, #0
 589:./Libraries/STM32_USB_Host_Library/Core/Src/usbh_ctlreq.c **** #if (osCMSIS < 0x20000U)
 240              		.loc 1 589 21 view .LVU66
 241 0074 0322     		movs	r2, #3
 593:./Libraries/STM32_USB_Host_Library/Core/Src/usbh_ctlreq.c **** #endif
 242              		.loc 1 593 13 view .LVU67
 243 0076 3146     		mov	r1, r6
 244 0078 D4F8D804 		ldr	r0, [r4, #1240]
 589:./Libraries/STM32_USB_Host_Library/Core/Src/usbh_ctlreq.c **** #if (osCMSIS < 0x20000U)
 245              		.loc 1 589 21 view .LVU68
 246 007c C4F8E024 		str	r2, [r4, #1248]
 593:./Libraries/STM32_USB_Host_Library/Core/Src/usbh_ctlreq.c **** #endif
 247              		.loc 1 593 7 is_stmt 1 view .LVU69
 593:./Libraries/STM32_USB_Host_Library/Core/Src/usbh_ctlreq.c **** #endif
 248              		.loc 1 593 13 is_stmt 0 view .LVU70
 249 0080 1A46     		mov	r2, r3
 250 0082 FFF7FEFF 		bl	osMessageQueuePut
 251              	.LVL19:
 596:./Libraries/STM32_USB_Host_Library/Core/Src/usbh_ctlreq.c **** 
 252              		.loc 1 596 7 is_stmt 1 view .LVU71
ARM GAS  /tmp/ccOpRQ1g.s 			page 18


 601:./Libraries/STM32_USB_Host_Library/Core/Src/usbh_ctlreq.c **** }
 253              		.loc 1 601 3 view .LVU72
 601:./Libraries/STM32_USB_Host_Library/Core/Src/usbh_ctlreq.c **** }
 254              		.loc 1 601 3 is_stmt 0 view .LVU73
 255              	.LBE54:
 256              	.LBE56:
 601:./Libraries/STM32_USB_Host_Library/Core/Src/usbh_ctlreq.c **** }
 257              		.loc 1 601 3 is_stmt 1 view .LVU74
 602:./Libraries/STM32_USB_Host_Library/Core/Src/usbh_ctlreq.c **** 
 258              		.loc 1 602 1 is_stmt 0 view .LVU75
 259 0086 2846     		mov	r0, r5
 260 0088 03B0     		add	sp, sp, #12
 261              	.LCFI6:
 262              		.cfi_remember_state
 263              		.cfi_def_cfa_offset 20
 264              		@ sp needed
 265 008a F0BD     		pop	{r4, r5, r6, r7, pc}
 266              	.LVL20:
 267              	.L8:
 268              	.LCFI7:
 269              		.cfi_restore_state
 270              	.LBB57:
 271              	.LBB55:
 272              	.LBB41:
 273              	.LBB27:
 677:./Libraries/STM32_USB_Host_Library/Core/Src/usbh_ctlreq.c ****         {
 678:./Libraries/STM32_USB_Host_Library/Core/Src/usbh_ctlreq.c ****           phost->Control.state = CTRL_ERROR;
 679:./Libraries/STM32_USB_Host_Library/Core/Src/usbh_ctlreq.c **** 
 680:./Libraries/STM32_USB_Host_Library/Core/Src/usbh_ctlreq.c **** #if (USBH_USE_OS == 1U)
 681:./Libraries/STM32_USB_Host_Library/Core/Src/usbh_ctlreq.c ****           phost->os_msg = (uint32_t)USBH_CONTROL_EVENT;
 682:./Libraries/STM32_USB_Host_Library/Core/Src/usbh_ctlreq.c **** #if (osCMSIS < 0x20000U)
 683:./Libraries/STM32_USB_Host_Library/Core/Src/usbh_ctlreq.c ****           (void)osMessagePut(phost->os_event, phost->os_msg, 0U);
 684:./Libraries/STM32_USB_Host_Library/Core/Src/usbh_ctlreq.c **** #else
 685:./Libraries/STM32_USB_Host_Library/Core/Src/usbh_ctlreq.c ****           (void)osMessageQueuePut(phost->os_event, &phost->os_msg, 0U, NULL);
 686:./Libraries/STM32_USB_Host_Library/Core/Src/usbh_ctlreq.c **** #endif
 687:./Libraries/STM32_USB_Host_Library/Core/Src/usbh_ctlreq.c **** #endif
 688:./Libraries/STM32_USB_Host_Library/Core/Src/usbh_ctlreq.c ****         }
 689:./Libraries/STM32_USB_Host_Library/Core/Src/usbh_ctlreq.c ****       }
 690:./Libraries/STM32_USB_Host_Library/Core/Src/usbh_ctlreq.c ****       break;
 691:./Libraries/STM32_USB_Host_Library/Core/Src/usbh_ctlreq.c **** 
 692:./Libraries/STM32_USB_Host_Library/Core/Src/usbh_ctlreq.c ****     case CTRL_DATA_IN:
 693:./Libraries/STM32_USB_Host_Library/Core/Src/usbh_ctlreq.c ****       /* Issue an IN token */
 694:./Libraries/STM32_USB_Host_Library/Core/Src/usbh_ctlreq.c ****       phost->Control.timer = (uint16_t)phost->Timer;
 695:./Libraries/STM32_USB_Host_Library/Core/Src/usbh_ctlreq.c ****       USBH_CtlReceiveData(phost, phost->Control.buff, phost->Control.length,
 696:./Libraries/STM32_USB_Host_Library/Core/Src/usbh_ctlreq.c ****                           phost->Control.pipe_in);
 697:./Libraries/STM32_USB_Host_Library/Core/Src/usbh_ctlreq.c **** 
 698:./Libraries/STM32_USB_Host_Library/Core/Src/usbh_ctlreq.c ****       phost->Control.state = CTRL_DATA_IN_WAIT;
 699:./Libraries/STM32_USB_Host_Library/Core/Src/usbh_ctlreq.c ****       break;
 700:./Libraries/STM32_USB_Host_Library/Core/Src/usbh_ctlreq.c **** 
 701:./Libraries/STM32_USB_Host_Library/Core/Src/usbh_ctlreq.c ****     case CTRL_DATA_IN_WAIT:
 702:./Libraries/STM32_USB_Host_Library/Core/Src/usbh_ctlreq.c **** 
 703:./Libraries/STM32_USB_Host_Library/Core/Src/usbh_ctlreq.c ****       URB_Status = USBH_LL_GetURBState(phost, phost->Control.pipe_in);
 704:./Libraries/STM32_USB_Host_Library/Core/Src/usbh_ctlreq.c **** 
 705:./Libraries/STM32_USB_Host_Library/Core/Src/usbh_ctlreq.c ****       /* check is DATA packet transferred successfully */
 706:./Libraries/STM32_USB_Host_Library/Core/Src/usbh_ctlreq.c ****       if (URB_Status == USBH_URB_DONE)
 707:./Libraries/STM32_USB_Host_Library/Core/Src/usbh_ctlreq.c ****       {
 708:./Libraries/STM32_USB_Host_Library/Core/Src/usbh_ctlreq.c ****         phost->Control.state = CTRL_STATUS_OUT;
ARM GAS  /tmp/ccOpRQ1g.s 			page 19


 709:./Libraries/STM32_USB_Host_Library/Core/Src/usbh_ctlreq.c **** 
 710:./Libraries/STM32_USB_Host_Library/Core/Src/usbh_ctlreq.c **** #if (USBH_USE_OS == 1U)
 711:./Libraries/STM32_USB_Host_Library/Core/Src/usbh_ctlreq.c ****         phost->os_msg = (uint32_t)USBH_CONTROL_EVENT;
 712:./Libraries/STM32_USB_Host_Library/Core/Src/usbh_ctlreq.c **** #if (osCMSIS < 0x20000U)
 713:./Libraries/STM32_USB_Host_Library/Core/Src/usbh_ctlreq.c ****         (void)osMessagePut(phost->os_event, phost->os_msg, 0U);
 714:./Libraries/STM32_USB_Host_Library/Core/Src/usbh_ctlreq.c **** #else
 715:./Libraries/STM32_USB_Host_Library/Core/Src/usbh_ctlreq.c ****         (void)osMessageQueuePut(phost->os_event, &phost->os_msg, 0U, NULL);
 716:./Libraries/STM32_USB_Host_Library/Core/Src/usbh_ctlreq.c **** #endif
 717:./Libraries/STM32_USB_Host_Library/Core/Src/usbh_ctlreq.c **** #endif
 718:./Libraries/STM32_USB_Host_Library/Core/Src/usbh_ctlreq.c ****       }
 719:./Libraries/STM32_USB_Host_Library/Core/Src/usbh_ctlreq.c **** 
 720:./Libraries/STM32_USB_Host_Library/Core/Src/usbh_ctlreq.c ****       /* manage error cases*/
 721:./Libraries/STM32_USB_Host_Library/Core/Src/usbh_ctlreq.c ****       if (URB_Status == USBH_URB_STALL)
 722:./Libraries/STM32_USB_Host_Library/Core/Src/usbh_ctlreq.c ****       {
 723:./Libraries/STM32_USB_Host_Library/Core/Src/usbh_ctlreq.c ****         /* In stall case, return to previous machine state*/
 724:./Libraries/STM32_USB_Host_Library/Core/Src/usbh_ctlreq.c ****         status = USBH_NOT_SUPPORTED;
 725:./Libraries/STM32_USB_Host_Library/Core/Src/usbh_ctlreq.c **** 
 726:./Libraries/STM32_USB_Host_Library/Core/Src/usbh_ctlreq.c **** #if (USBH_USE_OS == 1U)
 727:./Libraries/STM32_USB_Host_Library/Core/Src/usbh_ctlreq.c ****         phost->os_msg = (uint32_t)USBH_CONTROL_EVENT;
 728:./Libraries/STM32_USB_Host_Library/Core/Src/usbh_ctlreq.c **** #if (osCMSIS < 0x20000U)
 729:./Libraries/STM32_USB_Host_Library/Core/Src/usbh_ctlreq.c ****         (void)osMessagePut(phost->os_event, phost->os_msg, 0U);
 730:./Libraries/STM32_USB_Host_Library/Core/Src/usbh_ctlreq.c **** #else
 731:./Libraries/STM32_USB_Host_Library/Core/Src/usbh_ctlreq.c ****         (void)osMessageQueuePut(phost->os_event, &phost->os_msg, 0U, NULL);
 732:./Libraries/STM32_USB_Host_Library/Core/Src/usbh_ctlreq.c **** #endif
 733:./Libraries/STM32_USB_Host_Library/Core/Src/usbh_ctlreq.c **** #endif
 734:./Libraries/STM32_USB_Host_Library/Core/Src/usbh_ctlreq.c ****       }
 735:./Libraries/STM32_USB_Host_Library/Core/Src/usbh_ctlreq.c ****       else
 736:./Libraries/STM32_USB_Host_Library/Core/Src/usbh_ctlreq.c ****       {
 737:./Libraries/STM32_USB_Host_Library/Core/Src/usbh_ctlreq.c ****         if (URB_Status == USBH_URB_ERROR)
 738:./Libraries/STM32_USB_Host_Library/Core/Src/usbh_ctlreq.c ****         {
 739:./Libraries/STM32_USB_Host_Library/Core/Src/usbh_ctlreq.c ****           /* Device error */
 740:./Libraries/STM32_USB_Host_Library/Core/Src/usbh_ctlreq.c ****           phost->Control.state = CTRL_ERROR;
 741:./Libraries/STM32_USB_Host_Library/Core/Src/usbh_ctlreq.c **** 
 742:./Libraries/STM32_USB_Host_Library/Core/Src/usbh_ctlreq.c **** #if (USBH_USE_OS == 1U)
 743:./Libraries/STM32_USB_Host_Library/Core/Src/usbh_ctlreq.c ****           phost->os_msg = (uint32_t)USBH_CONTROL_EVENT;
 744:./Libraries/STM32_USB_Host_Library/Core/Src/usbh_ctlreq.c **** #if (osCMSIS < 0x20000U)
 745:./Libraries/STM32_USB_Host_Library/Core/Src/usbh_ctlreq.c ****           (void)osMessagePut(phost->os_event, phost->os_msg, 0U);
 746:./Libraries/STM32_USB_Host_Library/Core/Src/usbh_ctlreq.c **** #else
 747:./Libraries/STM32_USB_Host_Library/Core/Src/usbh_ctlreq.c ****           (void)osMessageQueuePut(phost->os_event, &phost->os_msg, 0U, NULL);
 748:./Libraries/STM32_USB_Host_Library/Core/Src/usbh_ctlreq.c **** #endif
 749:./Libraries/STM32_USB_Host_Library/Core/Src/usbh_ctlreq.c **** #endif
 750:./Libraries/STM32_USB_Host_Library/Core/Src/usbh_ctlreq.c ****         }
 751:./Libraries/STM32_USB_Host_Library/Core/Src/usbh_ctlreq.c ****       }
 752:./Libraries/STM32_USB_Host_Library/Core/Src/usbh_ctlreq.c ****       break;
 753:./Libraries/STM32_USB_Host_Library/Core/Src/usbh_ctlreq.c **** 
 754:./Libraries/STM32_USB_Host_Library/Core/Src/usbh_ctlreq.c ****     case CTRL_DATA_OUT:
 755:./Libraries/STM32_USB_Host_Library/Core/Src/usbh_ctlreq.c **** 
 756:./Libraries/STM32_USB_Host_Library/Core/Src/usbh_ctlreq.c ****       USBH_CtlSendData(phost, phost->Control.buff, phost->Control.length,
 757:./Libraries/STM32_USB_Host_Library/Core/Src/usbh_ctlreq.c ****                        phost->Control.pipe_out, 1U);
 758:./Libraries/STM32_USB_Host_Library/Core/Src/usbh_ctlreq.c **** 
 759:./Libraries/STM32_USB_Host_Library/Core/Src/usbh_ctlreq.c ****       phost->Control.timer = (uint16_t)phost->Timer;
 760:./Libraries/STM32_USB_Host_Library/Core/Src/usbh_ctlreq.c ****       phost->Control.state = CTRL_DATA_OUT_WAIT;
 761:./Libraries/STM32_USB_Host_Library/Core/Src/usbh_ctlreq.c ****       break;
 762:./Libraries/STM32_USB_Host_Library/Core/Src/usbh_ctlreq.c **** 
 763:./Libraries/STM32_USB_Host_Library/Core/Src/usbh_ctlreq.c ****     case CTRL_DATA_OUT_WAIT:
 764:./Libraries/STM32_USB_Host_Library/Core/Src/usbh_ctlreq.c **** 
 765:./Libraries/STM32_USB_Host_Library/Core/Src/usbh_ctlreq.c ****       URB_Status = USBH_LL_GetURBState(phost, phost->Control.pipe_out);
ARM GAS  /tmp/ccOpRQ1g.s 			page 20


 766:./Libraries/STM32_USB_Host_Library/Core/Src/usbh_ctlreq.c **** 
 767:./Libraries/STM32_USB_Host_Library/Core/Src/usbh_ctlreq.c ****       if (URB_Status == USBH_URB_DONE)
 768:./Libraries/STM32_USB_Host_Library/Core/Src/usbh_ctlreq.c ****       {
 769:./Libraries/STM32_USB_Host_Library/Core/Src/usbh_ctlreq.c ****         /* If the Setup Pkt is sent successful, then change the state */
 770:./Libraries/STM32_USB_Host_Library/Core/Src/usbh_ctlreq.c ****         phost->Control.state = CTRL_STATUS_IN;
 771:./Libraries/STM32_USB_Host_Library/Core/Src/usbh_ctlreq.c **** 
 772:./Libraries/STM32_USB_Host_Library/Core/Src/usbh_ctlreq.c **** #if (USBH_USE_OS == 1U)
 773:./Libraries/STM32_USB_Host_Library/Core/Src/usbh_ctlreq.c ****         phost->os_msg = (uint32_t)USBH_CONTROL_EVENT;
 774:./Libraries/STM32_USB_Host_Library/Core/Src/usbh_ctlreq.c **** #if (osCMSIS < 0x20000U)
 775:./Libraries/STM32_USB_Host_Library/Core/Src/usbh_ctlreq.c ****         (void)osMessagePut(phost->os_event, phost->os_msg, 0U);
 776:./Libraries/STM32_USB_Host_Library/Core/Src/usbh_ctlreq.c **** #else
 777:./Libraries/STM32_USB_Host_Library/Core/Src/usbh_ctlreq.c ****         (void)osMessageQueuePut(phost->os_event, &phost->os_msg, 0U, NULL);
 778:./Libraries/STM32_USB_Host_Library/Core/Src/usbh_ctlreq.c **** #endif
 779:./Libraries/STM32_USB_Host_Library/Core/Src/usbh_ctlreq.c **** #endif
 780:./Libraries/STM32_USB_Host_Library/Core/Src/usbh_ctlreq.c ****       }
 781:./Libraries/STM32_USB_Host_Library/Core/Src/usbh_ctlreq.c **** 
 782:./Libraries/STM32_USB_Host_Library/Core/Src/usbh_ctlreq.c ****       /* handle error cases */
 783:./Libraries/STM32_USB_Host_Library/Core/Src/usbh_ctlreq.c ****       else if (URB_Status == USBH_URB_STALL)
 784:./Libraries/STM32_USB_Host_Library/Core/Src/usbh_ctlreq.c ****       {
 785:./Libraries/STM32_USB_Host_Library/Core/Src/usbh_ctlreq.c ****         /* In stall case, return to previous machine state*/
 786:./Libraries/STM32_USB_Host_Library/Core/Src/usbh_ctlreq.c ****         phost->Control.state = CTRL_STALLED;
 787:./Libraries/STM32_USB_Host_Library/Core/Src/usbh_ctlreq.c ****         status = USBH_NOT_SUPPORTED;
 788:./Libraries/STM32_USB_Host_Library/Core/Src/usbh_ctlreq.c **** 
 789:./Libraries/STM32_USB_Host_Library/Core/Src/usbh_ctlreq.c **** #if (USBH_USE_OS == 1U)
 790:./Libraries/STM32_USB_Host_Library/Core/Src/usbh_ctlreq.c ****         phost->os_msg = (uint32_t)USBH_CONTROL_EVENT;
 791:./Libraries/STM32_USB_Host_Library/Core/Src/usbh_ctlreq.c **** #if (osCMSIS < 0x20000U)
 792:./Libraries/STM32_USB_Host_Library/Core/Src/usbh_ctlreq.c ****         (void)osMessagePut(phost->os_event, phost->os_msg, 0U);
 793:./Libraries/STM32_USB_Host_Library/Core/Src/usbh_ctlreq.c **** #else
 794:./Libraries/STM32_USB_Host_Library/Core/Src/usbh_ctlreq.c ****         (void)osMessageQueuePut(phost->os_event, &phost->os_msg, 0U, NULL);
 795:./Libraries/STM32_USB_Host_Library/Core/Src/usbh_ctlreq.c **** #endif
 796:./Libraries/STM32_USB_Host_Library/Core/Src/usbh_ctlreq.c **** #endif
 797:./Libraries/STM32_USB_Host_Library/Core/Src/usbh_ctlreq.c ****       }
 798:./Libraries/STM32_USB_Host_Library/Core/Src/usbh_ctlreq.c ****       else if (URB_Status == USBH_URB_NOTREADY)
 799:./Libraries/STM32_USB_Host_Library/Core/Src/usbh_ctlreq.c ****       {
 800:./Libraries/STM32_USB_Host_Library/Core/Src/usbh_ctlreq.c ****         /* Nack received from device */
 801:./Libraries/STM32_USB_Host_Library/Core/Src/usbh_ctlreq.c ****         phost->Control.state = CTRL_DATA_OUT;
 802:./Libraries/STM32_USB_Host_Library/Core/Src/usbh_ctlreq.c **** 
 803:./Libraries/STM32_USB_Host_Library/Core/Src/usbh_ctlreq.c **** #if (USBH_USE_OS == 1U)
 804:./Libraries/STM32_USB_Host_Library/Core/Src/usbh_ctlreq.c ****         phost->os_msg = (uint32_t)USBH_CONTROL_EVENT;
 805:./Libraries/STM32_USB_Host_Library/Core/Src/usbh_ctlreq.c **** #if (osCMSIS < 0x20000U)
 806:./Libraries/STM32_USB_Host_Library/Core/Src/usbh_ctlreq.c ****         (void)osMessagePut(phost->os_event, phost->os_msg, 0U);
 807:./Libraries/STM32_USB_Host_Library/Core/Src/usbh_ctlreq.c **** #else
 808:./Libraries/STM32_USB_Host_Library/Core/Src/usbh_ctlreq.c ****         (void)osMessageQueuePut(phost->os_event, &phost->os_msg, 0U, NULL);
 809:./Libraries/STM32_USB_Host_Library/Core/Src/usbh_ctlreq.c **** #endif
 810:./Libraries/STM32_USB_Host_Library/Core/Src/usbh_ctlreq.c **** #endif
 811:./Libraries/STM32_USB_Host_Library/Core/Src/usbh_ctlreq.c ****       }
 812:./Libraries/STM32_USB_Host_Library/Core/Src/usbh_ctlreq.c ****       else
 813:./Libraries/STM32_USB_Host_Library/Core/Src/usbh_ctlreq.c ****       {
 814:./Libraries/STM32_USB_Host_Library/Core/Src/usbh_ctlreq.c ****         if (URB_Status == USBH_URB_ERROR)
 815:./Libraries/STM32_USB_Host_Library/Core/Src/usbh_ctlreq.c ****         {
 816:./Libraries/STM32_USB_Host_Library/Core/Src/usbh_ctlreq.c ****           /* device error */
 817:./Libraries/STM32_USB_Host_Library/Core/Src/usbh_ctlreq.c ****           phost->Control.state = CTRL_ERROR;
 818:./Libraries/STM32_USB_Host_Library/Core/Src/usbh_ctlreq.c ****           status = USBH_FAIL;
 819:./Libraries/STM32_USB_Host_Library/Core/Src/usbh_ctlreq.c **** 
 820:./Libraries/STM32_USB_Host_Library/Core/Src/usbh_ctlreq.c **** #if (USBH_USE_OS == 1U)
 821:./Libraries/STM32_USB_Host_Library/Core/Src/usbh_ctlreq.c ****           phost->os_msg = (uint32_t)USBH_CONTROL_EVENT;
 822:./Libraries/STM32_USB_Host_Library/Core/Src/usbh_ctlreq.c **** #if (osCMSIS < 0x20000U)
ARM GAS  /tmp/ccOpRQ1g.s 			page 21


 823:./Libraries/STM32_USB_Host_Library/Core/Src/usbh_ctlreq.c ****           (void)osMessagePut(phost->os_event, phost->os_msg, 0U);
 824:./Libraries/STM32_USB_Host_Library/Core/Src/usbh_ctlreq.c **** #else
 825:./Libraries/STM32_USB_Host_Library/Core/Src/usbh_ctlreq.c ****           (void)osMessageQueuePut(phost->os_event, &phost->os_msg, 0U, NULL);
 826:./Libraries/STM32_USB_Host_Library/Core/Src/usbh_ctlreq.c **** #endif
 827:./Libraries/STM32_USB_Host_Library/Core/Src/usbh_ctlreq.c **** #endif
 828:./Libraries/STM32_USB_Host_Library/Core/Src/usbh_ctlreq.c ****         }
 829:./Libraries/STM32_USB_Host_Library/Core/Src/usbh_ctlreq.c ****       }
 830:./Libraries/STM32_USB_Host_Library/Core/Src/usbh_ctlreq.c ****       break;
 831:./Libraries/STM32_USB_Host_Library/Core/Src/usbh_ctlreq.c **** 
 832:./Libraries/STM32_USB_Host_Library/Core/Src/usbh_ctlreq.c ****     case CTRL_STATUS_IN:
 833:./Libraries/STM32_USB_Host_Library/Core/Src/usbh_ctlreq.c ****       /* Send 0 bytes out packet */
 834:./Libraries/STM32_USB_Host_Library/Core/Src/usbh_ctlreq.c ****       USBH_CtlReceiveData(phost, 0U, 0U, phost->Control.pipe_in);
 835:./Libraries/STM32_USB_Host_Library/Core/Src/usbh_ctlreq.c **** 
 836:./Libraries/STM32_USB_Host_Library/Core/Src/usbh_ctlreq.c ****       phost->Control.timer = (uint16_t)phost->Timer;
 837:./Libraries/STM32_USB_Host_Library/Core/Src/usbh_ctlreq.c ****       phost->Control.state = CTRL_STATUS_IN_WAIT;
 838:./Libraries/STM32_USB_Host_Library/Core/Src/usbh_ctlreq.c **** 
 839:./Libraries/STM32_USB_Host_Library/Core/Src/usbh_ctlreq.c ****       break;
 840:./Libraries/STM32_USB_Host_Library/Core/Src/usbh_ctlreq.c **** 
 841:./Libraries/STM32_USB_Host_Library/Core/Src/usbh_ctlreq.c ****     case CTRL_STATUS_IN_WAIT:
 842:./Libraries/STM32_USB_Host_Library/Core/Src/usbh_ctlreq.c **** 
 843:./Libraries/STM32_USB_Host_Library/Core/Src/usbh_ctlreq.c ****       URB_Status = USBH_LL_GetURBState(phost, phost->Control.pipe_in);
 844:./Libraries/STM32_USB_Host_Library/Core/Src/usbh_ctlreq.c **** 
 845:./Libraries/STM32_USB_Host_Library/Core/Src/usbh_ctlreq.c ****       if (URB_Status == USBH_URB_DONE)
 846:./Libraries/STM32_USB_Host_Library/Core/Src/usbh_ctlreq.c ****       {
 847:./Libraries/STM32_USB_Host_Library/Core/Src/usbh_ctlreq.c ****         /* Control transfers completed, Exit the State Machine */
 848:./Libraries/STM32_USB_Host_Library/Core/Src/usbh_ctlreq.c ****         phost->Control.state = CTRL_COMPLETE;
 849:./Libraries/STM32_USB_Host_Library/Core/Src/usbh_ctlreq.c ****         status = USBH_OK;
 850:./Libraries/STM32_USB_Host_Library/Core/Src/usbh_ctlreq.c **** 
 851:./Libraries/STM32_USB_Host_Library/Core/Src/usbh_ctlreq.c **** #if (USBH_USE_OS == 1U)
 852:./Libraries/STM32_USB_Host_Library/Core/Src/usbh_ctlreq.c ****         phost->os_msg = (uint32_t)USBH_CONTROL_EVENT;
 853:./Libraries/STM32_USB_Host_Library/Core/Src/usbh_ctlreq.c **** #if (osCMSIS < 0x20000U)
 854:./Libraries/STM32_USB_Host_Library/Core/Src/usbh_ctlreq.c ****         (void)osMessagePut(phost->os_event, phost->os_msg, 0U);
 855:./Libraries/STM32_USB_Host_Library/Core/Src/usbh_ctlreq.c **** #else
 856:./Libraries/STM32_USB_Host_Library/Core/Src/usbh_ctlreq.c ****         (void)osMessageQueuePut(phost->os_event, &phost->os_msg, 0U, NULL);
 857:./Libraries/STM32_USB_Host_Library/Core/Src/usbh_ctlreq.c **** #endif
 858:./Libraries/STM32_USB_Host_Library/Core/Src/usbh_ctlreq.c **** #endif
 859:./Libraries/STM32_USB_Host_Library/Core/Src/usbh_ctlreq.c ****       }
 860:./Libraries/STM32_USB_Host_Library/Core/Src/usbh_ctlreq.c ****       else if (URB_Status == USBH_URB_ERROR)
 861:./Libraries/STM32_USB_Host_Library/Core/Src/usbh_ctlreq.c ****       {
 862:./Libraries/STM32_USB_Host_Library/Core/Src/usbh_ctlreq.c ****         phost->Control.state = CTRL_ERROR;
 863:./Libraries/STM32_USB_Host_Library/Core/Src/usbh_ctlreq.c **** 
 864:./Libraries/STM32_USB_Host_Library/Core/Src/usbh_ctlreq.c **** #if (USBH_USE_OS == 1U)
 865:./Libraries/STM32_USB_Host_Library/Core/Src/usbh_ctlreq.c ****         phost->os_msg = (uint32_t)USBH_CONTROL_EVENT;
 866:./Libraries/STM32_USB_Host_Library/Core/Src/usbh_ctlreq.c **** #if (osCMSIS < 0x20000U)
 867:./Libraries/STM32_USB_Host_Library/Core/Src/usbh_ctlreq.c ****         (void)osMessagePut(phost->os_event, phost->os_msg, 0U);
 868:./Libraries/STM32_USB_Host_Library/Core/Src/usbh_ctlreq.c **** #else
 869:./Libraries/STM32_USB_Host_Library/Core/Src/usbh_ctlreq.c ****         (void)osMessageQueuePut(phost->os_event, &phost->os_msg, 0U, NULL);
 870:./Libraries/STM32_USB_Host_Library/Core/Src/usbh_ctlreq.c **** #endif
 871:./Libraries/STM32_USB_Host_Library/Core/Src/usbh_ctlreq.c **** #endif
 872:./Libraries/STM32_USB_Host_Library/Core/Src/usbh_ctlreq.c ****       }
 873:./Libraries/STM32_USB_Host_Library/Core/Src/usbh_ctlreq.c ****       else
 874:./Libraries/STM32_USB_Host_Library/Core/Src/usbh_ctlreq.c ****       {
 875:./Libraries/STM32_USB_Host_Library/Core/Src/usbh_ctlreq.c ****         if (URB_Status == USBH_URB_STALL)
 876:./Libraries/STM32_USB_Host_Library/Core/Src/usbh_ctlreq.c ****         {
 877:./Libraries/STM32_USB_Host_Library/Core/Src/usbh_ctlreq.c ****           /* Control transfers completed, Exit the State Machine */
 878:./Libraries/STM32_USB_Host_Library/Core/Src/usbh_ctlreq.c ****           status = USBH_NOT_SUPPORTED;
 879:./Libraries/STM32_USB_Host_Library/Core/Src/usbh_ctlreq.c **** 
ARM GAS  /tmp/ccOpRQ1g.s 			page 22


 880:./Libraries/STM32_USB_Host_Library/Core/Src/usbh_ctlreq.c **** #if (USBH_USE_OS == 1U)
 881:./Libraries/STM32_USB_Host_Library/Core/Src/usbh_ctlreq.c ****           phost->os_msg = (uint32_t)USBH_CONTROL_EVENT;
 882:./Libraries/STM32_USB_Host_Library/Core/Src/usbh_ctlreq.c **** #if (osCMSIS < 0x20000U)
 883:./Libraries/STM32_USB_Host_Library/Core/Src/usbh_ctlreq.c ****           (void)osMessagePut(phost->os_event, phost->os_msg, 0U);
 884:./Libraries/STM32_USB_Host_Library/Core/Src/usbh_ctlreq.c **** #else
 885:./Libraries/STM32_USB_Host_Library/Core/Src/usbh_ctlreq.c ****           (void)osMessageQueuePut(phost->os_event, &phost->os_msg, 0U, NULL);
 886:./Libraries/STM32_USB_Host_Library/Core/Src/usbh_ctlreq.c **** #endif
 887:./Libraries/STM32_USB_Host_Library/Core/Src/usbh_ctlreq.c **** #endif
 888:./Libraries/STM32_USB_Host_Library/Core/Src/usbh_ctlreq.c ****         }
 889:./Libraries/STM32_USB_Host_Library/Core/Src/usbh_ctlreq.c ****       }
 890:./Libraries/STM32_USB_Host_Library/Core/Src/usbh_ctlreq.c ****       break;
 891:./Libraries/STM32_USB_Host_Library/Core/Src/usbh_ctlreq.c **** 
 892:./Libraries/STM32_USB_Host_Library/Core/Src/usbh_ctlreq.c ****     case CTRL_STATUS_OUT:
 893:./Libraries/STM32_USB_Host_Library/Core/Src/usbh_ctlreq.c ****       USBH_CtlSendData(phost, 0U, 0U, phost->Control.pipe_out, 1U);
 894:./Libraries/STM32_USB_Host_Library/Core/Src/usbh_ctlreq.c **** 
 895:./Libraries/STM32_USB_Host_Library/Core/Src/usbh_ctlreq.c ****       phost->Control.timer = (uint16_t)phost->Timer;
 896:./Libraries/STM32_USB_Host_Library/Core/Src/usbh_ctlreq.c ****       phost->Control.state = CTRL_STATUS_OUT_WAIT;
 897:./Libraries/STM32_USB_Host_Library/Core/Src/usbh_ctlreq.c ****       break;
 898:./Libraries/STM32_USB_Host_Library/Core/Src/usbh_ctlreq.c **** 
 899:./Libraries/STM32_USB_Host_Library/Core/Src/usbh_ctlreq.c ****     case CTRL_STATUS_OUT_WAIT:
 900:./Libraries/STM32_USB_Host_Library/Core/Src/usbh_ctlreq.c ****       URB_Status = USBH_LL_GetURBState(phost, phost->Control.pipe_out);
 901:./Libraries/STM32_USB_Host_Library/Core/Src/usbh_ctlreq.c ****       if (URB_Status == USBH_URB_DONE)
 902:./Libraries/STM32_USB_Host_Library/Core/Src/usbh_ctlreq.c ****       {
 903:./Libraries/STM32_USB_Host_Library/Core/Src/usbh_ctlreq.c ****         status = USBH_OK;
 904:./Libraries/STM32_USB_Host_Library/Core/Src/usbh_ctlreq.c ****         phost->Control.state = CTRL_COMPLETE;
 905:./Libraries/STM32_USB_Host_Library/Core/Src/usbh_ctlreq.c **** 
 906:./Libraries/STM32_USB_Host_Library/Core/Src/usbh_ctlreq.c **** #if (USBH_USE_OS == 1U)
 907:./Libraries/STM32_USB_Host_Library/Core/Src/usbh_ctlreq.c ****         phost->os_msg = (uint32_t)USBH_CONTROL_EVENT;
 908:./Libraries/STM32_USB_Host_Library/Core/Src/usbh_ctlreq.c **** #if (osCMSIS < 0x20000U)
 909:./Libraries/STM32_USB_Host_Library/Core/Src/usbh_ctlreq.c ****         (void)osMessagePut(phost->os_event, phost->os_msg, 0U);
 910:./Libraries/STM32_USB_Host_Library/Core/Src/usbh_ctlreq.c **** #else
 911:./Libraries/STM32_USB_Host_Library/Core/Src/usbh_ctlreq.c ****         (void)osMessageQueuePut(phost->os_event, &phost->os_msg, 0U, NULL);
 912:./Libraries/STM32_USB_Host_Library/Core/Src/usbh_ctlreq.c **** #endif
 913:./Libraries/STM32_USB_Host_Library/Core/Src/usbh_ctlreq.c **** #endif
 914:./Libraries/STM32_USB_Host_Library/Core/Src/usbh_ctlreq.c ****       }
 915:./Libraries/STM32_USB_Host_Library/Core/Src/usbh_ctlreq.c ****       else if (URB_Status == USBH_URB_NOTREADY)
 916:./Libraries/STM32_USB_Host_Library/Core/Src/usbh_ctlreq.c ****       {
 917:./Libraries/STM32_USB_Host_Library/Core/Src/usbh_ctlreq.c ****         phost->Control.state = CTRL_STATUS_OUT;
 918:./Libraries/STM32_USB_Host_Library/Core/Src/usbh_ctlreq.c **** 
 919:./Libraries/STM32_USB_Host_Library/Core/Src/usbh_ctlreq.c **** #if (USBH_USE_OS == 1U)
 920:./Libraries/STM32_USB_Host_Library/Core/Src/usbh_ctlreq.c ****         phost->os_msg = (uint32_t)USBH_CONTROL_EVENT;
 921:./Libraries/STM32_USB_Host_Library/Core/Src/usbh_ctlreq.c **** #if (osCMSIS < 0x20000U)
 922:./Libraries/STM32_USB_Host_Library/Core/Src/usbh_ctlreq.c ****         (void)osMessagePut(phost->os_event, phost->os_msg, 0U);
 923:./Libraries/STM32_USB_Host_Library/Core/Src/usbh_ctlreq.c **** #else
 924:./Libraries/STM32_USB_Host_Library/Core/Src/usbh_ctlreq.c ****         (void)osMessageQueuePut(phost->os_event, &phost->os_msg, 0U, NULL);
 925:./Libraries/STM32_USB_Host_Library/Core/Src/usbh_ctlreq.c **** #endif
 926:./Libraries/STM32_USB_Host_Library/Core/Src/usbh_ctlreq.c **** #endif
 927:./Libraries/STM32_USB_Host_Library/Core/Src/usbh_ctlreq.c ****       }
 928:./Libraries/STM32_USB_Host_Library/Core/Src/usbh_ctlreq.c ****       else
 929:./Libraries/STM32_USB_Host_Library/Core/Src/usbh_ctlreq.c ****       {
 930:./Libraries/STM32_USB_Host_Library/Core/Src/usbh_ctlreq.c ****         if (URB_Status == USBH_URB_ERROR)
 931:./Libraries/STM32_USB_Host_Library/Core/Src/usbh_ctlreq.c ****         {
 932:./Libraries/STM32_USB_Host_Library/Core/Src/usbh_ctlreq.c ****           phost->Control.state = CTRL_ERROR;
 933:./Libraries/STM32_USB_Host_Library/Core/Src/usbh_ctlreq.c **** 
 934:./Libraries/STM32_USB_Host_Library/Core/Src/usbh_ctlreq.c **** #if (USBH_USE_OS == 1U)
 935:./Libraries/STM32_USB_Host_Library/Core/Src/usbh_ctlreq.c ****           phost->os_msg = (uint32_t)USBH_CONTROL_EVENT;
 936:./Libraries/STM32_USB_Host_Library/Core/Src/usbh_ctlreq.c **** #if (osCMSIS < 0x20000U)
ARM GAS  /tmp/ccOpRQ1g.s 			page 23


 937:./Libraries/STM32_USB_Host_Library/Core/Src/usbh_ctlreq.c ****           (void)osMessagePut(phost->os_event, phost->os_msg, 0U);
 938:./Libraries/STM32_USB_Host_Library/Core/Src/usbh_ctlreq.c **** #else
 939:./Libraries/STM32_USB_Host_Library/Core/Src/usbh_ctlreq.c ****           (void)osMessageQueuePut(phost->os_event, &phost->os_msg, 0U, NULL);
 940:./Libraries/STM32_USB_Host_Library/Core/Src/usbh_ctlreq.c **** #endif
 941:./Libraries/STM32_USB_Host_Library/Core/Src/usbh_ctlreq.c **** #endif
 942:./Libraries/STM32_USB_Host_Library/Core/Src/usbh_ctlreq.c ****         }
 943:./Libraries/STM32_USB_Host_Library/Core/Src/usbh_ctlreq.c ****       }
 944:./Libraries/STM32_USB_Host_Library/Core/Src/usbh_ctlreq.c ****       break;
 945:./Libraries/STM32_USB_Host_Library/Core/Src/usbh_ctlreq.c **** 
 946:./Libraries/STM32_USB_Host_Library/Core/Src/usbh_ctlreq.c ****     case CTRL_ERROR:
 947:./Libraries/STM32_USB_Host_Library/Core/Src/usbh_ctlreq.c ****       /*
 948:./Libraries/STM32_USB_Host_Library/Core/Src/usbh_ctlreq.c ****       After a halt condition is encountered or an error is detected by the
 949:./Libraries/STM32_USB_Host_Library/Core/Src/usbh_ctlreq.c ****       host, a control endpoint is allowed to recover by accepting the next Setup
 950:./Libraries/STM32_USB_Host_Library/Core/Src/usbh_ctlreq.c ****       PID; i.e., recovery actions via some other pipe are not required for control
 951:./Libraries/STM32_USB_Host_Library/Core/Src/usbh_ctlreq.c ****       endpoints. For the Default Control Pipe, a device reset will ultimately be
 952:./Libraries/STM32_USB_Host_Library/Core/Src/usbh_ctlreq.c ****       required to clear the halt or error condition if the next Setup PID is not
 953:./Libraries/STM32_USB_Host_Library/Core/Src/usbh_ctlreq.c ****       accepted.
 954:./Libraries/STM32_USB_Host_Library/Core/Src/usbh_ctlreq.c ****       */
 955:./Libraries/STM32_USB_Host_Library/Core/Src/usbh_ctlreq.c ****       if (++phost->Control.errorcount <= USBH_MAX_ERROR_COUNT)
 274              		.loc 1 955 7 is_stmt 1 view .LVU76
 275              		.loc 1 955 11 is_stmt 0 view .LVU77
 276 008c 437E     		ldrb	r3, [r0, #25]	@ zero_extendqisi2
 277 008e 0133     		adds	r3, r3, #1
 278 0090 DBB2     		uxtb	r3, r3
 279              		.loc 1 955 10 view .LVU78
 280 0092 022B     		cmp	r3, #2
 281 0094 4376     		strb	r3, [r0, #25]
 282 0096 00F2BC80 		bhi	.L38
 956:./Libraries/STM32_USB_Host_Library/Core/Src/usbh_ctlreq.c ****       {
 957:./Libraries/STM32_USB_Host_Library/Core/Src/usbh_ctlreq.c ****         /* Do the transmission again, starting from SETUP Packet */
 958:./Libraries/STM32_USB_Host_Library/Core/Src/usbh_ctlreq.c ****         phost->Control.state = CTRL_SETUP;
 283              		.loc 1 958 9 is_stmt 1 view .LVU79
 284              		.loc 1 958 30 is_stmt 0 view .LVU80
 285 009a 0123     		movs	r3, #1
 286 009c 00F59C66 		add	r6, r0, #1248
 614:./Libraries/STM32_USB_Host_Library/Core/Src/usbh_ctlreq.c ****   USBH_URBStateTypeDef URB_Status = USBH_URB_IDLE;
 287              		.loc 1 614 22 view .LVU81
 288 00a0 1D46     		mov	r5, r3
 289              		.loc 1 958 30 view .LVU82
 290 00a2 0376     		strb	r3, [r0, #24]
 959:./Libraries/STM32_USB_Host_Library/Core/Src/usbh_ctlreq.c ****         phost->RequestState = CMD_SEND;
 291              		.loc 1 959 9 is_stmt 1 view .LVU83
 292              		.loc 1 959 29 is_stmt 0 view .LVU84
 293 00a4 8370     		strb	r3, [r0, #2]
 960:./Libraries/STM32_USB_Host_Library/Core/Src/usbh_ctlreq.c ****       }
 961:./Libraries/STM32_USB_Host_Library/Core/Src/usbh_ctlreq.c ****       else
 962:./Libraries/STM32_USB_Host_Library/Core/Src/usbh_ctlreq.c ****       {
 963:./Libraries/STM32_USB_Host_Library/Core/Src/usbh_ctlreq.c ****         phost->pUser(phost, HOST_USER_UNRECOVERED_ERROR);
 964:./Libraries/STM32_USB_Host_Library/Core/Src/usbh_ctlreq.c ****         phost->Control.errorcount = 0U;
 965:./Libraries/STM32_USB_Host_Library/Core/Src/usbh_ctlreq.c ****         USBH_ErrLog("Control error: Device not responding");
 966:./Libraries/STM32_USB_Host_Library/Core/Src/usbh_ctlreq.c **** 
 967:./Libraries/STM32_USB_Host_Library/Core/Src/usbh_ctlreq.c ****         /* Free control pipes */
 968:./Libraries/STM32_USB_Host_Library/Core/Src/usbh_ctlreq.c ****         USBH_FreePipe(phost, phost->Control.pipe_out);
 969:./Libraries/STM32_USB_Host_Library/Core/Src/usbh_ctlreq.c ****         USBH_FreePipe(phost, phost->Control.pipe_in);
 970:./Libraries/STM32_USB_Host_Library/Core/Src/usbh_ctlreq.c **** 
 971:./Libraries/STM32_USB_Host_Library/Core/Src/usbh_ctlreq.c ****         phost->gState = HOST_IDLE;
 972:./Libraries/STM32_USB_Host_Library/Core/Src/usbh_ctlreq.c ****         status = USBH_FAIL;
ARM GAS  /tmp/ccOpRQ1g.s 			page 24


 973:./Libraries/STM32_USB_Host_Library/Core/Src/usbh_ctlreq.c ****       }
 974:./Libraries/STM32_USB_Host_Library/Core/Src/usbh_ctlreq.c ****       break;
 975:./Libraries/STM32_USB_Host_Library/Core/Src/usbh_ctlreq.c **** 
 976:./Libraries/STM32_USB_Host_Library/Core/Src/usbh_ctlreq.c ****     default:
 977:./Libraries/STM32_USB_Host_Library/Core/Src/usbh_ctlreq.c ****       break;
 978:./Libraries/STM32_USB_Host_Library/Core/Src/usbh_ctlreq.c ****   }
 979:./Libraries/STM32_USB_Host_Library/Core/Src/usbh_ctlreq.c **** 
 980:./Libraries/STM32_USB_Host_Library/Core/Src/usbh_ctlreq.c ****   return status;
 294              		.loc 1 980 3 is_stmt 1 view .LVU85
 295              	.LVL21:
 296              		.loc 1 980 3 is_stmt 0 view .LVU86
 297              	.LBE27:
 298              	.LBE41:
 573:./Libraries/STM32_USB_Host_Library/Core/Src/usbh_ctlreq.c ****       {
 299              		.loc 1 573 7 is_stmt 1 view .LVU87
 300 00a6 E4E7     		b	.L20
 301              	.LVL22:
 302              	.L10:
 303              	.LBB42:
 304              	.LBB28:
 900:./Libraries/STM32_USB_Host_Library/Core/Src/usbh_ctlreq.c ****       if (URB_Status == USBH_URB_DONE)
 305              		.loc 1 900 7 view .LVU88
 900:./Libraries/STM32_USB_Host_Library/Core/Src/usbh_ctlreq.c ****       if (URB_Status == USBH_URB_DONE)
 306              		.loc 1 900 20 is_stmt 0 view .LVU89
 307 00a8 4179     		ldrb	r1, [r0, #5]	@ zero_extendqisi2
 308              	.LVL23:
 900:./Libraries/STM32_USB_Host_Library/Core/Src/usbh_ctlreq.c ****       if (URB_Status == USBH_URB_DONE)
 309              		.loc 1 900 20 view .LVU90
 310 00aa FFF7FEFF 		bl	USBH_LL_GetURBState
 311              	.LVL24:
 901:./Libraries/STM32_USB_Host_Library/Core/Src/usbh_ctlreq.c ****       {
 312              		.loc 1 901 7 is_stmt 1 view .LVU91
 901:./Libraries/STM32_USB_Host_Library/Core/Src/usbh_ctlreq.c ****       {
 313              		.loc 1 901 10 is_stmt 0 view .LVU92
 314 00ae 0128     		cmp	r0, #1
 315 00b0 00F09F80 		beq	.L44
 915:./Libraries/STM32_USB_Host_Library/Core/Src/usbh_ctlreq.c ****       {
 316              		.loc 1 915 12 is_stmt 1 view .LVU93
 915:./Libraries/STM32_USB_Host_Library/Core/Src/usbh_ctlreq.c ****       {
 317              		.loc 1 915 15 is_stmt 0 view .LVU94
 318 00b4 0228     		cmp	r0, #2
 319 00b6 00F0E280 		beq	.L51
 930:./Libraries/STM32_USB_Host_Library/Core/Src/usbh_ctlreq.c ****         {
 320              		.loc 1 930 9 is_stmt 1 view .LVU95
 930:./Libraries/STM32_USB_Host_Library/Core/Src/usbh_ctlreq.c ****         {
 321              		.loc 1 930 12 is_stmt 0 view .LVU96
 322 00ba 0428     		cmp	r0, #4
 323 00bc D6D1     		bne	.L28
 324              	.L46:
 932:./Libraries/STM32_USB_Host_Library/Core/Src/usbh_ctlreq.c **** 
 325              		.loc 1 932 11 is_stmt 1 view .LVU97
 932:./Libraries/STM32_USB_Host_Library/Core/Src/usbh_ctlreq.c **** 
 326              		.loc 1 932 32 is_stmt 0 view .LVU98
 327 00be 0B21     		movs	r1, #11
 328              	.L47:
 935:./Libraries/STM32_USB_Host_Library/Core/Src/usbh_ctlreq.c **** #if (osCMSIS < 0x20000U)
 329              		.loc 1 935 25 view .LVU99
ARM GAS  /tmp/ccOpRQ1g.s 			page 25


 330 00c0 0322     		movs	r2, #3
 939:./Libraries/STM32_USB_Host_Library/Core/Src/usbh_ctlreq.c **** #endif
 331              		.loc 1 939 52 view .LVU100
 332 00c2 04F59C66 		add	r6, r4, #1248
 939:./Libraries/STM32_USB_Host_Library/Core/Src/usbh_ctlreq.c **** #endif
 333              		.loc 1 939 17 view .LVU101
 334 00c6 0023     		movs	r3, #0
 614:./Libraries/STM32_USB_Host_Library/Core/Src/usbh_ctlreq.c ****   USBH_URBStateTypeDef URB_Status = USBH_URB_IDLE;
 335              		.loc 1 614 22 view .LVU102
 336 00c8 0125     		movs	r5, #1
 932:./Libraries/STM32_USB_Host_Library/Core/Src/usbh_ctlreq.c **** 
 337              		.loc 1 932 32 view .LVU103
 338 00ca 2176     		strb	r1, [r4, #24]
 935:./Libraries/STM32_USB_Host_Library/Core/Src/usbh_ctlreq.c **** #if (osCMSIS < 0x20000U)
 339              		.loc 1 935 11 is_stmt 1 view .LVU104
 340              	.L48:
 935:./Libraries/STM32_USB_Host_Library/Core/Src/usbh_ctlreq.c **** #if (osCMSIS < 0x20000U)
 341              		.loc 1 935 25 is_stmt 0 view .LVU105
 342 00cc C4F8E024 		str	r2, [r4, #1248]
 939:./Libraries/STM32_USB_Host_Library/Core/Src/usbh_ctlreq.c **** #endif
 343              		.loc 1 939 11 is_stmt 1 view .LVU106
 939:./Libraries/STM32_USB_Host_Library/Core/Src/usbh_ctlreq.c **** #endif
 344              		.loc 1 939 17 is_stmt 0 view .LVU107
 345 00d0 3146     		mov	r1, r6
 346 00d2 1A46     		mov	r2, r3
 347 00d4 D4F8D804 		ldr	r0, [r4, #1240]
 348              	.LVL25:
 939:./Libraries/STM32_USB_Host_Library/Core/Src/usbh_ctlreq.c **** #endif
 349              		.loc 1 939 17 view .LVU108
 350 00d8 FFF7FEFF 		bl	osMessageQueuePut
 351              	.LVL26:
 352              		.loc 1 980 3 is_stmt 1 view .LVU109
 353              		.loc 1 980 3 is_stmt 0 view .LVU110
 354              	.LBE28:
 355              	.LBE42:
 573:./Libraries/STM32_USB_Host_Library/Core/Src/usbh_ctlreq.c ****       {
 356              		.loc 1 573 7 is_stmt 1 view .LVU111
 357 00dc C9E7     		b	.L20
 358              	.LVL27:
 359              	.L11:
 360              	.LBB43:
 361              	.LBB29:
 893:./Libraries/STM32_USB_Host_Library/Core/Src/usbh_ctlreq.c **** 
 362              		.loc 1 893 7 view .LVU112
 363 00de 0022     		movs	r2, #0
 364 00e0 0125     		movs	r5, #1
 365 00e2 4379     		ldrb	r3, [r0, #5]	@ zero_extendqisi2
 366 00e4 04F59C66 		add	r6, r4, #1248
 367 00e8 1146     		mov	r1, r2
 368              	.LVL28:
 893:./Libraries/STM32_USB_Host_Library/Core/Src/usbh_ctlreq.c **** 
 369              		.loc 1 893 7 is_stmt 0 view .LVU113
 370 00ea 0095     		str	r5, [sp]
 371 00ec FFF7FEFF 		bl	USBH_CtlSendData
 372              	.LVL29:
 895:./Libraries/STM32_USB_Host_Library/Core/Src/usbh_ctlreq.c ****       phost->Control.state = CTRL_STATUS_OUT_WAIT;
 373              		.loc 1 895 7 is_stmt 1 view .LVU114
ARM GAS  /tmp/ccOpRQ1g.s 			page 26


 895:./Libraries/STM32_USB_Host_Library/Core/Src/usbh_ctlreq.c ****       phost->Control.state = CTRL_STATUS_OUT_WAIT;
 374              		.loc 1 895 45 is_stmt 0 view .LVU115
 375 00f0 D4F8C424 		ldr	r2, [r4, #1220]
 896:./Libraries/STM32_USB_Host_Library/Core/Src/usbh_ctlreq.c ****       break;
 376              		.loc 1 896 28 view .LVU116
 377 00f4 0A23     		movs	r3, #10
 895:./Libraries/STM32_USB_Host_Library/Core/Src/usbh_ctlreq.c ****       phost->Control.state = CTRL_STATUS_OUT_WAIT;
 378              		.loc 1 895 30 view .LVU117
 379 00f6 E281     		strh	r2, [r4, #14]	@ movhi
 896:./Libraries/STM32_USB_Host_Library/Core/Src/usbh_ctlreq.c ****       break;
 380              		.loc 1 896 7 is_stmt 1 view .LVU118
 896:./Libraries/STM32_USB_Host_Library/Core/Src/usbh_ctlreq.c ****       break;
 381              		.loc 1 896 28 is_stmt 0 view .LVU119
 382 00f8 2376     		strb	r3, [r4, #24]
 897:./Libraries/STM32_USB_Host_Library/Core/Src/usbh_ctlreq.c **** 
 383              		.loc 1 897 7 is_stmt 1 view .LVU120
 384              		.loc 1 980 3 view .LVU121
 385              	.LVL30:
 386              		.loc 1 980 3 is_stmt 0 view .LVU122
 387              	.LBE29:
 388              	.LBE43:
 573:./Libraries/STM32_USB_Host_Library/Core/Src/usbh_ctlreq.c ****       {
 389              		.loc 1 573 7 is_stmt 1 view .LVU123
 390 00fa BAE7     		b	.L20
 391              	.LVL31:
 392              	.L12:
 393              	.LBB44:
 394              	.LBB30:
 843:./Libraries/STM32_USB_Host_Library/Core/Src/usbh_ctlreq.c **** 
 395              		.loc 1 843 7 view .LVU124
 843:./Libraries/STM32_USB_Host_Library/Core/Src/usbh_ctlreq.c **** 
 396              		.loc 1 843 20 is_stmt 0 view .LVU125
 397 00fc 0179     		ldrb	r1, [r0, #4]	@ zero_extendqisi2
 398              	.LVL32:
 843:./Libraries/STM32_USB_Host_Library/Core/Src/usbh_ctlreq.c **** 
 399              		.loc 1 843 20 view .LVU126
 400 00fe FFF7FEFF 		bl	USBH_LL_GetURBState
 401              	.LVL33:
 845:./Libraries/STM32_USB_Host_Library/Core/Src/usbh_ctlreq.c ****       {
 402              		.loc 1 845 7 is_stmt 1 view .LVU127
 845:./Libraries/STM32_USB_Host_Library/Core/Src/usbh_ctlreq.c ****       {
 403              		.loc 1 845 10 is_stmt 0 view .LVU128
 404 0102 0128     		cmp	r0, #1
 405 0104 75D0     		beq	.L44
 860:./Libraries/STM32_USB_Host_Library/Core/Src/usbh_ctlreq.c ****       {
 406              		.loc 1 860 12 is_stmt 1 view .LVU129
 860:./Libraries/STM32_USB_Host_Library/Core/Src/usbh_ctlreq.c ****       {
 407              		.loc 1 860 15 is_stmt 0 view .LVU130
 408 0106 0428     		cmp	r0, #4
 409 0108 D9D0     		beq	.L46
 875:./Libraries/STM32_USB_Host_Library/Core/Src/usbh_ctlreq.c ****         {
 410              		.loc 1 875 9 is_stmt 1 view .LVU131
 875:./Libraries/STM32_USB_Host_Library/Core/Src/usbh_ctlreq.c ****         {
 411              		.loc 1 875 12 is_stmt 0 view .LVU132
 412 010a 0528     		cmp	r0, #5
 413 010c AED1     		bne	.L28
 414              	.L39:
ARM GAS  /tmp/ccOpRQ1g.s 			page 27


 724:./Libraries/STM32_USB_Host_Library/Core/Src/usbh_ctlreq.c **** 
 415              		.loc 1 724 9 is_stmt 1 view .LVU133
 416              	.LVL34:
 727:./Libraries/STM32_USB_Host_Library/Core/Src/usbh_ctlreq.c **** #if (osCMSIS < 0x20000U)
 417              		.loc 1 727 9 view .LVU134
 727:./Libraries/STM32_USB_Host_Library/Core/Src/usbh_ctlreq.c **** #if (osCMSIS < 0x20000U)
 418              		.loc 1 727 23 is_stmt 0 view .LVU135
 419 010e 0325     		movs	r5, #3
 731:./Libraries/STM32_USB_Host_Library/Core/Src/usbh_ctlreq.c **** #endif
 420              		.loc 1 731 50 view .LVU136
 421 0110 04F59C66 		add	r6, r4, #1248
 731:./Libraries/STM32_USB_Host_Library/Core/Src/usbh_ctlreq.c **** #endif
 422              		.loc 1 731 15 view .LVU137
 423 0114 0023     		movs	r3, #0
 424 0116 D4F8D804 		ldr	r0, [r4, #1240]
 425              	.LVL35:
 731:./Libraries/STM32_USB_Host_Library/Core/Src/usbh_ctlreq.c **** #endif
 426              		.loc 1 731 15 view .LVU138
 427 011a 3146     		mov	r1, r6
 727:./Libraries/STM32_USB_Host_Library/Core/Src/usbh_ctlreq.c **** #if (osCMSIS < 0x20000U)
 428              		.loc 1 727 23 view .LVU139
 429 011c C4F8E054 		str	r5, [r4, #1248]
 731:./Libraries/STM32_USB_Host_Library/Core/Src/usbh_ctlreq.c **** #endif
 430              		.loc 1 731 9 is_stmt 1 view .LVU140
 731:./Libraries/STM32_USB_Host_Library/Core/Src/usbh_ctlreq.c **** #endif
 431              		.loc 1 731 15 is_stmt 0 view .LVU141
 432 0120 1A46     		mov	r2, r3
 433 0122 FFF7FEFF 		bl	osMessageQueuePut
 434              	.LVL36:
 435              		.loc 1 980 3 is_stmt 1 view .LVU142
 436              		.loc 1 980 3 is_stmt 0 view .LVU143
 437              	.LBE30:
 438              	.LBE44:
 573:./Libraries/STM32_USB_Host_Library/Core/Src/usbh_ctlreq.c ****       {
 439              		.loc 1 573 7 is_stmt 1 view .LVU144
 440              	.L31:
 576:./Libraries/STM32_USB_Host_Library/Core/Src/usbh_ctlreq.c ****         phost->Control.state = CTRL_IDLE;
 441              		.loc 1 576 9 view .LVU145
 576:./Libraries/STM32_USB_Host_Library/Core/Src/usbh_ctlreq.c ****         phost->Control.state = CTRL_IDLE;
 442              		.loc 1 576 29 is_stmt 0 view .LVU146
 443 0126 0122     		movs	r2, #1
 577:./Libraries/STM32_USB_Host_Library/Core/Src/usbh_ctlreq.c ****       }
 444              		.loc 1 577 30 view .LVU147
 445 0128 0023     		movs	r3, #0
 576:./Libraries/STM32_USB_Host_Library/Core/Src/usbh_ctlreq.c ****         phost->Control.state = CTRL_IDLE;
 446              		.loc 1 576 29 view .LVU148
 447 012a A270     		strb	r2, [r4, #2]
 577:./Libraries/STM32_USB_Host_Library/Core/Src/usbh_ctlreq.c ****       }
 448              		.loc 1 577 9 is_stmt 1 view .LVU149
 577:./Libraries/STM32_USB_Host_Library/Core/Src/usbh_ctlreq.c ****       }
 449              		.loc 1 577 30 is_stmt 0 view .LVU150
 450 012c 2376     		strb	r3, [r4, #24]
 451 012e A0E7     		b	.L20
 452              	.LVL37:
 453              	.L13:
 454              	.LBB45:
 455              	.LBB31:
ARM GAS  /tmp/ccOpRQ1g.s 			page 28


 834:./Libraries/STM32_USB_Host_Library/Core/Src/usbh_ctlreq.c **** 
 456              		.loc 1 834 7 is_stmt 1 view .LVU151
 457 0130 0022     		movs	r2, #0
 458 0132 0379     		ldrb	r3, [r0, #4]	@ zero_extendqisi2
 459 0134 00F59C66 		add	r6, r0, #1248
 614:./Libraries/STM32_USB_Host_Library/Core/Src/usbh_ctlreq.c ****   USBH_URBStateTypeDef URB_Status = USBH_URB_IDLE;
 460              		.loc 1 614 22 is_stmt 0 view .LVU152
 461 0138 0125     		movs	r5, #1
 834:./Libraries/STM32_USB_Host_Library/Core/Src/usbh_ctlreq.c **** 
 462              		.loc 1 834 7 view .LVU153
 463 013a 1146     		mov	r1, r2
 464              	.LVL38:
 834:./Libraries/STM32_USB_Host_Library/Core/Src/usbh_ctlreq.c **** 
 465              		.loc 1 834 7 view .LVU154
 466 013c FFF7FEFF 		bl	USBH_CtlReceiveData
 467              	.LVL39:
 836:./Libraries/STM32_USB_Host_Library/Core/Src/usbh_ctlreq.c ****       phost->Control.state = CTRL_STATUS_IN_WAIT;
 468              		.loc 1 836 7 is_stmt 1 view .LVU155
 836:./Libraries/STM32_USB_Host_Library/Core/Src/usbh_ctlreq.c ****       phost->Control.state = CTRL_STATUS_IN_WAIT;
 469              		.loc 1 836 45 is_stmt 0 view .LVU156
 470 0140 D4F8C424 		ldr	r2, [r4, #1220]
 837:./Libraries/STM32_USB_Host_Library/Core/Src/usbh_ctlreq.c **** 
 471              		.loc 1 837 28 view .LVU157
 472 0144 0823     		movs	r3, #8
 836:./Libraries/STM32_USB_Host_Library/Core/Src/usbh_ctlreq.c ****       phost->Control.state = CTRL_STATUS_IN_WAIT;
 473              		.loc 1 836 30 view .LVU158
 474 0146 E281     		strh	r2, [r4, #14]	@ movhi
 837:./Libraries/STM32_USB_Host_Library/Core/Src/usbh_ctlreq.c **** 
 475              		.loc 1 837 7 is_stmt 1 view .LVU159
 837:./Libraries/STM32_USB_Host_Library/Core/Src/usbh_ctlreq.c **** 
 476              		.loc 1 837 28 is_stmt 0 view .LVU160
 477 0148 2376     		strb	r3, [r4, #24]
 839:./Libraries/STM32_USB_Host_Library/Core/Src/usbh_ctlreq.c **** 
 478              		.loc 1 839 7 is_stmt 1 view .LVU161
 479              		.loc 1 980 3 view .LVU162
 480              	.LVL40:
 481              		.loc 1 980 3 is_stmt 0 view .LVU163
 482              	.LBE31:
 483              	.LBE45:
 573:./Libraries/STM32_USB_Host_Library/Core/Src/usbh_ctlreq.c ****       {
 484              		.loc 1 573 7 is_stmt 1 view .LVU164
 485 014a 92E7     		b	.L20
 486              	.LVL41:
 487              	.L14:
 488              	.LBB46:
 489              	.LBB32:
 765:./Libraries/STM32_USB_Host_Library/Core/Src/usbh_ctlreq.c **** 
 490              		.loc 1 765 7 view .LVU165
 765:./Libraries/STM32_USB_Host_Library/Core/Src/usbh_ctlreq.c **** 
 491              		.loc 1 765 20 is_stmt 0 view .LVU166
 492 014c 4179     		ldrb	r1, [r0, #5]	@ zero_extendqisi2
 493              	.LVL42:
 765:./Libraries/STM32_USB_Host_Library/Core/Src/usbh_ctlreq.c **** 
 494              		.loc 1 765 20 view .LVU167
 495 014e FFF7FEFF 		bl	USBH_LL_GetURBState
 496              	.LVL43:
 767:./Libraries/STM32_USB_Host_Library/Core/Src/usbh_ctlreq.c ****       {
ARM GAS  /tmp/ccOpRQ1g.s 			page 29


 497              		.loc 1 767 7 is_stmt 1 view .LVU168
 767:./Libraries/STM32_USB_Host_Library/Core/Src/usbh_ctlreq.c ****       {
 498              		.loc 1 767 10 is_stmt 0 view .LVU169
 499 0152 0128     		cmp	r0, #1
 500 0154 00F08B80 		beq	.L52
 783:./Libraries/STM32_USB_Host_Library/Core/Src/usbh_ctlreq.c ****       {
 501              		.loc 1 783 12 is_stmt 1 view .LVU170
 783:./Libraries/STM32_USB_Host_Library/Core/Src/usbh_ctlreq.c ****       {
 502              		.loc 1 783 15 is_stmt 0 view .LVU171
 503 0158 0528     		cmp	r0, #5
 504 015a 00F09480 		beq	.L53
 798:./Libraries/STM32_USB_Host_Library/Core/Src/usbh_ctlreq.c ****       {
 505              		.loc 1 798 12 is_stmt 1 view .LVU172
 798:./Libraries/STM32_USB_Host_Library/Core/Src/usbh_ctlreq.c ****       {
 506              		.loc 1 798 15 is_stmt 0 view .LVU173
 507 015e 0228     		cmp	r0, #2
 508 0160 00F08F80 		beq	.L54
 814:./Libraries/STM32_USB_Host_Library/Core/Src/usbh_ctlreq.c ****         {
 509              		.loc 1 814 9 is_stmt 1 view .LVU174
 814:./Libraries/STM32_USB_Host_Library/Core/Src/usbh_ctlreq.c ****         {
 510              		.loc 1 814 12 is_stmt 0 view .LVU175
 511 0164 0428     		cmp	r0, #4
 512 0166 81D1     		bne	.L28
 817:./Libraries/STM32_USB_Host_Library/Core/Src/usbh_ctlreq.c ****           status = USBH_FAIL;
 513              		.loc 1 817 11 is_stmt 1 view .LVU176
 817:./Libraries/STM32_USB_Host_Library/Core/Src/usbh_ctlreq.c ****           status = USBH_FAIL;
 514              		.loc 1 817 32 is_stmt 0 view .LVU177
 515 0168 0B21     		movs	r1, #11
 821:./Libraries/STM32_USB_Host_Library/Core/Src/usbh_ctlreq.c **** #if (osCMSIS < 0x20000U)
 516              		.loc 1 821 25 view .LVU178
 517 016a 0322     		movs	r2, #3
 825:./Libraries/STM32_USB_Host_Library/Core/Src/usbh_ctlreq.c **** #endif
 518              		.loc 1 825 52 view .LVU179
 519 016c 04F59C66 		add	r6, r4, #1248
 825:./Libraries/STM32_USB_Host_Library/Core/Src/usbh_ctlreq.c **** #endif
 520              		.loc 1 825 17 view .LVU180
 521 0170 0023     		movs	r3, #0
 817:./Libraries/STM32_USB_Host_Library/Core/Src/usbh_ctlreq.c ****           status = USBH_FAIL;
 522              		.loc 1 817 32 view .LVU181
 523 0172 2176     		strb	r1, [r4, #24]
 818:./Libraries/STM32_USB_Host_Library/Core/Src/usbh_ctlreq.c **** 
 524              		.loc 1 818 11 is_stmt 1 view .LVU182
 525              	.LVL44:
 821:./Libraries/STM32_USB_Host_Library/Core/Src/usbh_ctlreq.c **** #if (osCMSIS < 0x20000U)
 526              		.loc 1 821 11 view .LVU183
 821:./Libraries/STM32_USB_Host_Library/Core/Src/usbh_ctlreq.c **** #if (osCMSIS < 0x20000U)
 527              		.loc 1 821 25 is_stmt 0 view .LVU184
 528 0174 C4F8E024 		str	r2, [r4, #1248]
 825:./Libraries/STM32_USB_Host_Library/Core/Src/usbh_ctlreq.c **** #endif
 529              		.loc 1 825 11 is_stmt 1 view .LVU185
 825:./Libraries/STM32_USB_Host_Library/Core/Src/usbh_ctlreq.c **** #endif
 530              		.loc 1 825 17 is_stmt 0 view .LVU186
 531 0178 3146     		mov	r1, r6
 532 017a 1A46     		mov	r2, r3
 533 017c D4F8D804 		ldr	r0, [r4, #1240]
 534              	.LVL45:
 825:./Libraries/STM32_USB_Host_Library/Core/Src/usbh_ctlreq.c **** #endif
ARM GAS  /tmp/ccOpRQ1g.s 			page 30


 535              		.loc 1 825 17 view .LVU187
 536 0180 FFF7FEFF 		bl	osMessageQueuePut
 537              	.LVL46:
 538              		.loc 1 980 3 is_stmt 1 view .LVU188
 539              		.loc 1 980 3 is_stmt 0 view .LVU189
 540              	.LBE32:
 541              	.LBE46:
 573:./Libraries/STM32_USB_Host_Library/Core/Src/usbh_ctlreq.c ****       {
 542              		.loc 1 573 7 is_stmt 1 view .LVU190
 543              	.L33:
 582:./Libraries/STM32_USB_Host_Library/Core/Src/usbh_ctlreq.c ****       }
 544              		.loc 1 582 9 view .LVU191
 582:./Libraries/STM32_USB_Host_Library/Core/Src/usbh_ctlreq.c ****       }
 545              		.loc 1 582 29 is_stmt 0 view .LVU192
 546 0184 0123     		movs	r3, #1
 547 0186 A370     		strb	r3, [r4, #2]
 548 0188 73E7     		b	.L20
 549              	.LVL47:
 550              	.L15:
 551              	.LBB47:
 552              	.LBB33:
 756:./Libraries/STM32_USB_Host_Library/Core/Src/usbh_ctlreq.c ****                        phost->Control.pipe_out, 1U);
 553              		.loc 1 756 7 is_stmt 1 view .LVU193
 554 018a 0125     		movs	r5, #1
 555 018c 4379     		ldrb	r3, [r0, #5]	@ zero_extendqisi2
 556 018e 8289     		ldrh	r2, [r0, #12]
 557 0190 00F59C66 		add	r6, r0, #1248
 558 0194 0095     		str	r5, [sp]
 559 0196 8168     		ldr	r1, [r0, #8]
 560              	.LVL48:
 756:./Libraries/STM32_USB_Host_Library/Core/Src/usbh_ctlreq.c ****                        phost->Control.pipe_out, 1U);
 561              		.loc 1 756 7 is_stmt 0 view .LVU194
 562 0198 FFF7FEFF 		bl	USBH_CtlSendData
 563              	.LVL49:
 759:./Libraries/STM32_USB_Host_Library/Core/Src/usbh_ctlreq.c ****       phost->Control.state = CTRL_DATA_OUT_WAIT;
 564              		.loc 1 759 7 is_stmt 1 view .LVU195
 759:./Libraries/STM32_USB_Host_Library/Core/Src/usbh_ctlreq.c ****       phost->Control.state = CTRL_DATA_OUT_WAIT;
 565              		.loc 1 759 45 is_stmt 0 view .LVU196
 566 019c D4F8C424 		ldr	r2, [r4, #1220]
 760:./Libraries/STM32_USB_Host_Library/Core/Src/usbh_ctlreq.c ****       break;
 567              		.loc 1 760 28 view .LVU197
 568 01a0 0623     		movs	r3, #6
 759:./Libraries/STM32_USB_Host_Library/Core/Src/usbh_ctlreq.c ****       phost->Control.state = CTRL_DATA_OUT_WAIT;
 569              		.loc 1 759 30 view .LVU198
 570 01a2 E281     		strh	r2, [r4, #14]	@ movhi
 760:./Libraries/STM32_USB_Host_Library/Core/Src/usbh_ctlreq.c ****       break;
 571              		.loc 1 760 7 is_stmt 1 view .LVU199
 760:./Libraries/STM32_USB_Host_Library/Core/Src/usbh_ctlreq.c ****       break;
 572              		.loc 1 760 28 is_stmt 0 view .LVU200
 573 01a4 2376     		strb	r3, [r4, #24]
 761:./Libraries/STM32_USB_Host_Library/Core/Src/usbh_ctlreq.c **** 
 574              		.loc 1 761 7 is_stmt 1 view .LVU201
 575              		.loc 1 980 3 view .LVU202
 576              	.LVL50:
 577              		.loc 1 980 3 is_stmt 0 view .LVU203
 578              	.LBE33:
 579              	.LBE47:
ARM GAS  /tmp/ccOpRQ1g.s 			page 31


 573:./Libraries/STM32_USB_Host_Library/Core/Src/usbh_ctlreq.c ****       {
 580              		.loc 1 573 7 is_stmt 1 view .LVU204
 581 01a6 64E7     		b	.L20
 582              	.LVL51:
 583              	.L16:
 584              	.LBB48:
 585              	.LBB34:
 703:./Libraries/STM32_USB_Host_Library/Core/Src/usbh_ctlreq.c **** 
 586              		.loc 1 703 7 view .LVU205
 703:./Libraries/STM32_USB_Host_Library/Core/Src/usbh_ctlreq.c **** 
 587              		.loc 1 703 20 is_stmt 0 view .LVU206
 588 01a8 0179     		ldrb	r1, [r0, #4]	@ zero_extendqisi2
 589              	.LVL52:
 703:./Libraries/STM32_USB_Host_Library/Core/Src/usbh_ctlreq.c **** 
 590              		.loc 1 703 20 view .LVU207
 591 01aa FFF7FEFF 		bl	USBH_LL_GetURBState
 592              	.LVL53:
 706:./Libraries/STM32_USB_Host_Library/Core/Src/usbh_ctlreq.c ****       {
 593              		.loc 1 706 10 view .LVU208
 594 01ae 0128     		cmp	r0, #1
 703:./Libraries/STM32_USB_Host_Library/Core/Src/usbh_ctlreq.c **** 
 595              		.loc 1 703 20 view .LVU209
 596 01b0 0546     		mov	r5, r0
 597              	.LVL54:
 706:./Libraries/STM32_USB_Host_Library/Core/Src/usbh_ctlreq.c ****       {
 598              		.loc 1 706 7 is_stmt 1 view .LVU210
 706:./Libraries/STM32_USB_Host_Library/Core/Src/usbh_ctlreq.c ****       {
 599              		.loc 1 706 10 is_stmt 0 view .LVU211
 600 01b2 55D0     		beq	.L55
 721:./Libraries/STM32_USB_Host_Library/Core/Src/usbh_ctlreq.c ****       {
 601              		.loc 1 721 7 is_stmt 1 view .LVU212
 721:./Libraries/STM32_USB_Host_Library/Core/Src/usbh_ctlreq.c ****       {
 602              		.loc 1 721 10 is_stmt 0 view .LVU213
 603 01b4 0528     		cmp	r0, #5
 604 01b6 AAD0     		beq	.L39
 737:./Libraries/STM32_USB_Host_Library/Core/Src/usbh_ctlreq.c ****         {
 605              		.loc 1 737 9 is_stmt 1 view .LVU214
 737:./Libraries/STM32_USB_Host_Library/Core/Src/usbh_ctlreq.c ****         {
 606              		.loc 1 737 12 is_stmt 0 view .LVU215
 607 01b8 042D     		cmp	r5, #4
 608 01ba 7FF457AF 		bne	.L28
 609 01be 7EE7     		b	.L46
 610              	.LVL55:
 611              	.L17:
 694:./Libraries/STM32_USB_Host_Library/Core/Src/usbh_ctlreq.c ****       USBH_CtlReceiveData(phost, phost->Control.buff, phost->Control.length,
 612              		.loc 1 694 7 is_stmt 1 view .LVU216
 694:./Libraries/STM32_USB_Host_Library/Core/Src/usbh_ctlreq.c ****       USBH_CtlReceiveData(phost, phost->Control.buff, phost->Control.length,
 613              		.loc 1 694 45 is_stmt 0 view .LVU217
 614 01c0 D0F8C424 		ldr	r2, [r0, #1220]
 615 01c4 00F59C66 		add	r6, r0, #1248
 695:./Libraries/STM32_USB_Host_Library/Core/Src/usbh_ctlreq.c ****                           phost->Control.pipe_in);
 616              		.loc 1 695 7 view .LVU218
 617 01c8 0379     		ldrb	r3, [r0, #4]	@ zero_extendqisi2
 614:./Libraries/STM32_USB_Host_Library/Core/Src/usbh_ctlreq.c ****   USBH_URBStateTypeDef URB_Status = USBH_URB_IDLE;
 618              		.loc 1 614 22 view .LVU219
 619 01ca 0125     		movs	r5, #1
 694:./Libraries/STM32_USB_Host_Library/Core/Src/usbh_ctlreq.c ****       USBH_CtlReceiveData(phost, phost->Control.buff, phost->Control.length,
ARM GAS  /tmp/ccOpRQ1g.s 			page 32


 620              		.loc 1 694 30 view .LVU220
 621 01cc C281     		strh	r2, [r0, #14]	@ movhi
 695:./Libraries/STM32_USB_Host_Library/Core/Src/usbh_ctlreq.c ****                           phost->Control.pipe_in);
 622              		.loc 1 695 7 is_stmt 1 view .LVU221
 623 01ce 8168     		ldr	r1, [r0, #8]
 624              	.LVL56:
 695:./Libraries/STM32_USB_Host_Library/Core/Src/usbh_ctlreq.c ****                           phost->Control.pipe_in);
 625              		.loc 1 695 7 is_stmt 0 view .LVU222
 626 01d0 8289     		ldrh	r2, [r0, #12]
 627 01d2 FFF7FEFF 		bl	USBH_CtlReceiveData
 628              	.LVL57:
 698:./Libraries/STM32_USB_Host_Library/Core/Src/usbh_ctlreq.c ****       break;
 629              		.loc 1 698 7 is_stmt 1 view .LVU223
 698:./Libraries/STM32_USB_Host_Library/Core/Src/usbh_ctlreq.c ****       break;
 630              		.loc 1 698 28 is_stmt 0 view .LVU224
 631 01d6 0423     		movs	r3, #4
 632 01d8 2376     		strb	r3, [r4, #24]
 699:./Libraries/STM32_USB_Host_Library/Core/Src/usbh_ctlreq.c **** 
 633              		.loc 1 699 7 is_stmt 1 view .LVU225
 634              		.loc 1 980 3 view .LVU226
 635              	.LVL58:
 636              		.loc 1 980 3 is_stmt 0 view .LVU227
 637              	.LBE34:
 638              	.LBE48:
 573:./Libraries/STM32_USB_Host_Library/Core/Src/usbh_ctlreq.c ****       {
 639              		.loc 1 573 7 is_stmt 1 view .LVU228
 640 01da 4AE7     		b	.L20
 641              	.LVL59:
 642              	.L19:
 643              	.LBB49:
 644              	.LBB35:
 621:./Libraries/STM32_USB_Host_Library/Core/Src/usbh_ctlreq.c ****                         phost->Control.pipe_out);
 645              		.loc 1 621 7 view .LVU229
 646 01dc 4279     		ldrb	r2, [r0, #5]	@ zero_extendqisi2
 647 01de 00F11001 		add	r1, r0, #16
 648              	.LVL60:
 621:./Libraries/STM32_USB_Host_Library/Core/Src/usbh_ctlreq.c ****                         phost->Control.pipe_out);
 649              		.loc 1 621 7 is_stmt 0 view .LVU230
 650 01e2 FFF7FEFF 		bl	USBH_CtlSendSetup
 651              	.LVL61:
 624:./Libraries/STM32_USB_Host_Library/Core/Src/usbh_ctlreq.c ****       break;
 652              		.loc 1 624 7 is_stmt 1 view .LVU231
 624:./Libraries/STM32_USB_Host_Library/Core/Src/usbh_ctlreq.c ****       break;
 653              		.loc 1 624 28 is_stmt 0 view .LVU232
 654 01e6 0223     		movs	r3, #2
 614:./Libraries/STM32_USB_Host_Library/Core/Src/usbh_ctlreq.c ****   USBH_URBStateTypeDef URB_Status = USBH_URB_IDLE;
 655              		.loc 1 614 22 view .LVU233
 656 01e8 3546     		mov	r5, r6
 657 01ea 04F59C66 		add	r6, r4, #1248
 624:./Libraries/STM32_USB_Host_Library/Core/Src/usbh_ctlreq.c ****       break;
 658              		.loc 1 624 28 view .LVU234
 659 01ee 2376     		strb	r3, [r4, #24]
 625:./Libraries/STM32_USB_Host_Library/Core/Src/usbh_ctlreq.c **** 
 660              		.loc 1 625 7 is_stmt 1 view .LVU235
 661              		.loc 1 980 3 view .LVU236
 662              	.LVL62:
 663              		.loc 1 980 3 is_stmt 0 view .LVU237
ARM GAS  /tmp/ccOpRQ1g.s 			page 33


 664              	.LBE35:
 665              	.LBE49:
 573:./Libraries/STM32_USB_Host_Library/Core/Src/usbh_ctlreq.c ****       {
 666              		.loc 1 573 7 is_stmt 1 view .LVU238
 667 01f0 3FE7     		b	.L20
 668              	.LVL63:
 669              	.L44:
 670              	.LBB50:
 671              	.LBB36:
 903:./Libraries/STM32_USB_Host_Library/Core/Src/usbh_ctlreq.c ****         phost->Control.state = CTRL_COMPLETE;
 672              		.loc 1 903 9 view .LVU239
 904:./Libraries/STM32_USB_Host_Library/Core/Src/usbh_ctlreq.c **** 
 673              		.loc 1 904 9 view .LVU240
 911:./Libraries/STM32_USB_Host_Library/Core/Src/usbh_ctlreq.c **** #endif
 674              		.loc 1 911 15 is_stmt 0 view .LVU241
 675 01f2 0023     		movs	r3, #0
 904:./Libraries/STM32_USB_Host_Library/Core/Src/usbh_ctlreq.c **** 
 676              		.loc 1 904 30 view .LVU242
 677 01f4 0D21     		movs	r1, #13
 907:./Libraries/STM32_USB_Host_Library/Core/Src/usbh_ctlreq.c **** #if (osCMSIS < 0x20000U)
 678              		.loc 1 907 23 view .LVU243
 679 01f6 0322     		movs	r2, #3
 911:./Libraries/STM32_USB_Host_Library/Core/Src/usbh_ctlreq.c **** #endif
 680              		.loc 1 911 50 view .LVU244
 681 01f8 04F59C66 		add	r6, r4, #1248
 903:./Libraries/STM32_USB_Host_Library/Core/Src/usbh_ctlreq.c ****         phost->Control.state = CTRL_COMPLETE;
 682              		.loc 1 903 16 view .LVU245
 683 01fc 1D46     		mov	r5, r3
 904:./Libraries/STM32_USB_Host_Library/Core/Src/usbh_ctlreq.c **** 
 684              		.loc 1 904 30 view .LVU246
 685 01fe 2176     		strb	r1, [r4, #24]
 907:./Libraries/STM32_USB_Host_Library/Core/Src/usbh_ctlreq.c **** #if (osCMSIS < 0x20000U)
 686              		.loc 1 907 9 is_stmt 1 view .LVU247
 687              	.LVL64:
 688              	.L45:
 907:./Libraries/STM32_USB_Host_Library/Core/Src/usbh_ctlreq.c **** #if (osCMSIS < 0x20000U)
 689              		.loc 1 907 23 is_stmt 0 view .LVU248
 690 0200 C4F8E024 		str	r2, [r4, #1248]
 911:./Libraries/STM32_USB_Host_Library/Core/Src/usbh_ctlreq.c **** #endif
 691              		.loc 1 911 9 is_stmt 1 view .LVU249
 911:./Libraries/STM32_USB_Host_Library/Core/Src/usbh_ctlreq.c **** #endif
 692              		.loc 1 911 15 is_stmt 0 view .LVU250
 693 0204 3146     		mov	r1, r6
 694 0206 1A46     		mov	r2, r3
 695 0208 D4F8D804 		ldr	r0, [r4, #1240]
 696              	.LVL65:
 911:./Libraries/STM32_USB_Host_Library/Core/Src/usbh_ctlreq.c **** #endif
 697              		.loc 1 911 15 view .LVU251
 698 020c FFF7FEFF 		bl	osMessageQueuePut
 699              	.LVL66:
 700              		.loc 1 980 3 is_stmt 1 view .LVU252
 701              		.loc 1 980 3 is_stmt 0 view .LVU253
 702              	.LBE36:
 703              	.LBE50:
 573:./Libraries/STM32_USB_Host_Library/Core/Src/usbh_ctlreq.c ****       {
 704              		.loc 1 573 7 is_stmt 1 view .LVU254
 705 0210 89E7     		b	.L31
ARM GAS  /tmp/ccOpRQ1g.s 			page 34


 706              	.LVL67:
 707              	.L38:
 708              	.LBB51:
 709              	.LBB37:
 963:./Libraries/STM32_USB_Host_Library/Core/Src/usbh_ctlreq.c ****         phost->Control.errorcount = 0U;
 710              		.loc 1 963 9 view .LVU255
 964:./Libraries/STM32_USB_Host_Library/Core/Src/usbh_ctlreq.c ****         USBH_ErrLog("Control error: Device not responding");
 711              		.loc 1 964 35 is_stmt 0 view .LVU256
 712 0212 0027     		movs	r7, #0
 963:./Libraries/STM32_USB_Host_Library/Core/Src/usbh_ctlreq.c ****         phost->Control.errorcount = 0U;
 713              		.loc 1 963 9 view .LVU257
 714 0214 D0F8D434 		ldr	r3, [r0, #1236]
 715 0218 0621     		movs	r1, #6
 716              	.LVL68:
 963:./Libraries/STM32_USB_Host_Library/Core/Src/usbh_ctlreq.c ****         phost->Control.errorcount = 0U;
 717              		.loc 1 963 9 view .LVU258
 718 021a 04F59C66 		add	r6, r4, #1248
 719 021e 9847     		blx	r3
 720              	.LVL69:
 964:./Libraries/STM32_USB_Host_Library/Core/Src/usbh_ctlreq.c ****         USBH_ErrLog("Control error: Device not responding");
 721              		.loc 1 964 9 is_stmt 1 view .LVU259
 968:./Libraries/STM32_USB_Host_Library/Core/Src/usbh_ctlreq.c ****         USBH_FreePipe(phost, phost->Control.pipe_in);
 722              		.loc 1 968 9 is_stmt 0 view .LVU260
 723 0220 6179     		ldrb	r1, [r4, #5]	@ zero_extendqisi2
 724 0222 2046     		mov	r0, r4
 964:./Libraries/STM32_USB_Host_Library/Core/Src/usbh_ctlreq.c ****         USBH_ErrLog("Control error: Device not responding");
 725              		.loc 1 964 35 view .LVU261
 726 0224 6776     		strb	r7, [r4, #25]
 965:./Libraries/STM32_USB_Host_Library/Core/Src/usbh_ctlreq.c **** 
 727              		.loc 1 965 60 is_stmt 1 view .LVU262
 968:./Libraries/STM32_USB_Host_Library/Core/Src/usbh_ctlreq.c ****         USBH_FreePipe(phost, phost->Control.pipe_in);
 728              		.loc 1 968 9 view .LVU263
 729 0226 FFF7FEFF 		bl	USBH_FreePipe
 730              	.LVL70:
 969:./Libraries/STM32_USB_Host_Library/Core/Src/usbh_ctlreq.c **** 
 731              		.loc 1 969 9 view .LVU264
 732 022a 2179     		ldrb	r1, [r4, #4]	@ zero_extendqisi2
 733 022c 2046     		mov	r0, r4
 734 022e FFF7FEFF 		bl	USBH_FreePipe
 735              	.LVL71:
 971:./Libraries/STM32_USB_Host_Library/Core/Src/usbh_ctlreq.c ****         status = USBH_FAIL;
 736              		.loc 1 971 9 view .LVU265
 971:./Libraries/STM32_USB_Host_Library/Core/Src/usbh_ctlreq.c ****         status = USBH_FAIL;
 737              		.loc 1 971 23 is_stmt 0 view .LVU266
 738 0232 2770     		strb	r7, [r4]
 972:./Libraries/STM32_USB_Host_Library/Core/Src/usbh_ctlreq.c ****       }
 739              		.loc 1 972 9 is_stmt 1 view .LVU267
 740              	.LVL72:
 741              		.loc 1 980 3 view .LVU268
 742              		.loc 1 980 3 is_stmt 0 view .LVU269
 743              	.LBE37:
 744              	.LBE51:
 573:./Libraries/STM32_USB_Host_Library/Core/Src/usbh_ctlreq.c ****       {
 745              		.loc 1 573 7 is_stmt 1 view .LVU270
 746 0234 A6E7     		b	.L33
 747              	.LVL73:
 748              	.L50:
ARM GAS  /tmp/ccOpRQ1g.s 			page 35


 749              	.LBB52:
 750              	.LBB38:
 633:./Libraries/STM32_USB_Host_Library/Core/Src/usbh_ctlreq.c **** 
 751              		.loc 1 633 9 view .LVU271
 636:./Libraries/STM32_USB_Host_Library/Core/Src/usbh_ctlreq.c ****         {
 752              		.loc 1 636 12 is_stmt 0 view .LVU272
 753 0236 E38A     		ldrh	r3, [r4, #22]
 633:./Libraries/STM32_USB_Host_Library/Core/Src/usbh_ctlreq.c **** 
 754              		.loc 1 633 44 view .LVU273
 755 0238 227C     		ldrb	r2, [r4, #16]	@ zero_extendqisi2
 756              	.LVL74:
 636:./Libraries/STM32_USB_Host_Library/Core/Src/usbh_ctlreq.c ****         {
 757              		.loc 1 636 9 is_stmt 1 view .LVU274
 636:./Libraries/STM32_USB_Host_Library/Core/Src/usbh_ctlreq.c ****         {
 758              		.loc 1 636 12 is_stmt 0 view .LVU275
 759 023a D3B1     		cbz	r3, .L22
 638:./Libraries/STM32_USB_Host_Library/Core/Src/usbh_ctlreq.c ****           {
 760              		.loc 1 638 11 is_stmt 1 view .LVU276
 638:./Libraries/STM32_USB_Host_Library/Core/Src/usbh_ctlreq.c ****           {
 761              		.loc 1 638 14 is_stmt 0 view .LVU277
 762 023c 1206     		lsls	r2, r2, #24
 763              	.LVL75:
 641:./Libraries/STM32_USB_Host_Library/Core/Src/usbh_ctlreq.c ****           }
 764              		.loc 1 641 13 is_stmt 1 view .LVU278
 641:./Libraries/STM32_USB_Host_Library/Core/Src/usbh_ctlreq.c ****           }
 765              		.loc 1 641 34 is_stmt 0 view .LVU279
 766 023e 4CBF     		ite	mi
 767 0240 0323     		movmi	r3, #3
 646:./Libraries/STM32_USB_Host_Library/Core/Src/usbh_ctlreq.c ****           }
 768              		.loc 1 646 13 is_stmt 1 view .LVU280
 646:./Libraries/STM32_USB_Host_Library/Core/Src/usbh_ctlreq.c ****           }
 769              		.loc 1 646 34 is_stmt 0 view .LVU281
 770 0242 0523     		movpl	r3, #5
 771 0244 2376     		strb	r3, [r4, #24]
 772              	.L24:
 666:./Libraries/STM32_USB_Host_Library/Core/Src/usbh_ctlreq.c **** #if (osCMSIS < 0x20000U)
 773              		.loc 1 666 9 is_stmt 1 view .LVU282
 666:./Libraries/STM32_USB_Host_Library/Core/Src/usbh_ctlreq.c **** #if (osCMSIS < 0x20000U)
 774              		.loc 1 666 23 is_stmt 0 view .LVU283
 775 0246 0322     		movs	r2, #3
 670:./Libraries/STM32_USB_Host_Library/Core/Src/usbh_ctlreq.c **** #endif
 776              		.loc 1 670 50 view .LVU284
 777 0248 04F59C66 		add	r6, r4, #1248
 670:./Libraries/STM32_USB_Host_Library/Core/Src/usbh_ctlreq.c **** #endif
 778              		.loc 1 670 15 view .LVU285
 779 024c 0023     		movs	r3, #0
 780 024e D4F8D804 		ldr	r0, [r4, #1240]
 781              	.LVL76:
 666:./Libraries/STM32_USB_Host_Library/Core/Src/usbh_ctlreq.c **** #if (osCMSIS < 0x20000U)
 782              		.loc 1 666 23 view .LVU286
 783 0252 C4F8E024 		str	r2, [r4, #1248]
 670:./Libraries/STM32_USB_Host_Library/Core/Src/usbh_ctlreq.c **** #endif
 784              		.loc 1 670 9 is_stmt 1 view .LVU287
 670:./Libraries/STM32_USB_Host_Library/Core/Src/usbh_ctlreq.c **** #endif
 785              		.loc 1 670 15 is_stmt 0 view .LVU288
 786 0256 3146     		mov	r1, r6
 787 0258 1A46     		mov	r2, r3
ARM GAS  /tmp/ccOpRQ1g.s 			page 36


 788 025a FFF7FEFF 		bl	osMessageQueuePut
 789              	.LVL77:
 790              		.loc 1 980 3 is_stmt 1 view .LVU289
 791              		.loc 1 980 3 is_stmt 0 view .LVU290
 792              	.LBE38:
 793              	.LBE52:
 573:./Libraries/STM32_USB_Host_Library/Core/Src/usbh_ctlreq.c ****       {
 794              		.loc 1 573 7 is_stmt 1 view .LVU291
 795 025e 08E7     		b	.L20
 796              	.LVL78:
 797              	.L55:
 798              	.LBB53:
 799              	.LBB39:
 708:./Libraries/STM32_USB_Host_Library/Core/Src/usbh_ctlreq.c **** 
 800              		.loc 1 708 9 view .LVU292
 708:./Libraries/STM32_USB_Host_Library/Core/Src/usbh_ctlreq.c **** 
 801              		.loc 1 708 30 is_stmt 0 view .LVU293
 802 0260 0921     		movs	r1, #9
 711:./Libraries/STM32_USB_Host_Library/Core/Src/usbh_ctlreq.c **** #if (osCMSIS < 0x20000U)
 803              		.loc 1 711 23 view .LVU294
 804 0262 0322     		movs	r2, #3
 715:./Libraries/STM32_USB_Host_Library/Core/Src/usbh_ctlreq.c **** #endif
 805              		.loc 1 715 50 view .LVU295
 806 0264 04F59C66 		add	r6, r4, #1248
 715:./Libraries/STM32_USB_Host_Library/Core/Src/usbh_ctlreq.c **** #endif
 807              		.loc 1 715 15 view .LVU296
 808 0268 0023     		movs	r3, #0
 708:./Libraries/STM32_USB_Host_Library/Core/Src/usbh_ctlreq.c **** 
 809              		.loc 1 708 30 view .LVU297
 810 026a 2176     		strb	r1, [r4, #24]
 711:./Libraries/STM32_USB_Host_Library/Core/Src/usbh_ctlreq.c **** #if (osCMSIS < 0x20000U)
 811              		.loc 1 711 9 is_stmt 1 view .LVU298
 812 026c 2EE7     		b	.L48
 813              	.L52:
 770:./Libraries/STM32_USB_Host_Library/Core/Src/usbh_ctlreq.c **** 
 814              		.loc 1 770 9 view .LVU299
 770:./Libraries/STM32_USB_Host_Library/Core/Src/usbh_ctlreq.c **** 
 815              		.loc 1 770 30 is_stmt 0 view .LVU300
 816 026e 0721     		movs	r1, #7
 817 0270 26E7     		b	.L47
 818              	.LVL79:
 819              	.L22:
 653:./Libraries/STM32_USB_Host_Library/Core/Src/usbh_ctlreq.c ****           {
 820              		.loc 1 653 11 is_stmt 1 view .LVU301
 653:./Libraries/STM32_USB_Host_Library/Core/Src/usbh_ctlreq.c ****           {
 821              		.loc 1 653 14 is_stmt 0 view .LVU302
 822 0272 1306     		lsls	r3, r2, #24
 656:./Libraries/STM32_USB_Host_Library/Core/Src/usbh_ctlreq.c ****           }
 823              		.loc 1 656 13 is_stmt 1 view .LVU303
 656:./Libraries/STM32_USB_Host_Library/Core/Src/usbh_ctlreq.c ****           }
 824              		.loc 1 656 34 is_stmt 0 view .LVU304
 825 0274 4CBF     		ite	mi
 826 0276 0923     		movmi	r3, #9
 661:./Libraries/STM32_USB_Host_Library/Core/Src/usbh_ctlreq.c ****           }
 827              		.loc 1 661 13 is_stmt 1 view .LVU305
 661:./Libraries/STM32_USB_Host_Library/Core/Src/usbh_ctlreq.c ****           }
 828              		.loc 1 661 34 is_stmt 0 view .LVU306
ARM GAS  /tmp/ccOpRQ1g.s 			page 37


 829 0278 0723     		movpl	r3, #7
 830 027a 2376     		strb	r3, [r4, #24]
 831 027c E3E7     		b	.L24
 832              	.LVL80:
 833              	.L51:
 917:./Libraries/STM32_USB_Host_Library/Core/Src/usbh_ctlreq.c **** 
 834              		.loc 1 917 9 is_stmt 1 view .LVU307
 917:./Libraries/STM32_USB_Host_Library/Core/Src/usbh_ctlreq.c **** 
 835              		.loc 1 917 30 is_stmt 0 view .LVU308
 836 027e 0921     		movs	r1, #9
 837 0280 1EE7     		b	.L47
 838              	.L54:
 801:./Libraries/STM32_USB_Host_Library/Core/Src/usbh_ctlreq.c **** 
 839              		.loc 1 801 9 is_stmt 1 view .LVU309
 801:./Libraries/STM32_USB_Host_Library/Core/Src/usbh_ctlreq.c **** 
 840              		.loc 1 801 30 is_stmt 0 view .LVU310
 841 0282 0521     		movs	r1, #5
 842 0284 1CE7     		b	.L47
 843              	.L53:
 786:./Libraries/STM32_USB_Host_Library/Core/Src/usbh_ctlreq.c ****         status = USBH_NOT_SUPPORTED;
 844              		.loc 1 786 9 is_stmt 1 view .LVU311
 786:./Libraries/STM32_USB_Host_Library/Core/Src/usbh_ctlreq.c ****         status = USBH_NOT_SUPPORTED;
 845              		.loc 1 786 30 is_stmt 0 view .LVU312
 846 0286 0C21     		movs	r1, #12
 790:./Libraries/STM32_USB_Host_Library/Core/Src/usbh_ctlreq.c **** #if (osCMSIS < 0x20000U)
 847              		.loc 1 790 23 view .LVU313
 848 0288 0322     		movs	r2, #3
 794:./Libraries/STM32_USB_Host_Library/Core/Src/usbh_ctlreq.c **** #endif
 849              		.loc 1 794 50 view .LVU314
 850 028a 04F59C66 		add	r6, r4, #1248
 794:./Libraries/STM32_USB_Host_Library/Core/Src/usbh_ctlreq.c **** #endif
 851              		.loc 1 794 15 view .LVU315
 852 028e 0023     		movs	r3, #0
 787:./Libraries/STM32_USB_Host_Library/Core/Src/usbh_ctlreq.c **** 
 853              		.loc 1 787 16 view .LVU316
 854 0290 1546     		mov	r5, r2
 786:./Libraries/STM32_USB_Host_Library/Core/Src/usbh_ctlreq.c ****         status = USBH_NOT_SUPPORTED;
 855              		.loc 1 786 30 view .LVU317
 856 0292 2176     		strb	r1, [r4, #24]
 787:./Libraries/STM32_USB_Host_Library/Core/Src/usbh_ctlreq.c **** 
 857              		.loc 1 787 9 is_stmt 1 view .LVU318
 858              	.LVL81:
 790:./Libraries/STM32_USB_Host_Library/Core/Src/usbh_ctlreq.c **** #if (osCMSIS < 0x20000U)
 859              		.loc 1 790 9 view .LVU319
 860 0294 B4E7     		b	.L45
 861              	.LBE39:
 862              	.LBE53:
 863              	.LBE55:
 864              	.LBE57:
 865              		.cfi_endproc
 866              	.LFE353:
 868 0296 00BF     		.section	.text.USBH_GetDescriptor,"ax",%progbits
 869              		.align	1
 870              		.p2align 2,,3
 871              		.global	USBH_GetDescriptor
 872              		.syntax unified
 873              		.thumb
ARM GAS  /tmp/ccOpRQ1g.s 			page 38


 874              		.thumb_func
 875              		.fpu fpv5-d16
 877              	USBH_GetDescriptor:
 878              	.LVL82:
 879              	.LFB341:
 193:./Libraries/STM32_USB_Host_Library/Core/Src/usbh_ctlreq.c ****   if (phost->RequestState == CMD_SEND)
 880              		.loc 1 193 1 view -0
 881              		.cfi_startproc
 882              		@ args = 4, pretend = 0, frame = 0
 883              		@ frame_needed = 0, uses_anonymous_args = 0
 884              		@ link register save eliminated.
 194:./Libraries/STM32_USB_Host_Library/Core/Src/usbh_ctlreq.c ****   {
 885              		.loc 1 194 3 view .LVU321
 193:./Libraries/STM32_USB_Host_Library/Core/Src/usbh_ctlreq.c ****   if (phost->RequestState == CMD_SEND)
 886              		.loc 1 193 1 is_stmt 0 view .LVU322
 887 0000 70B4     		push	{r4, r5, r6}
 888              	.LCFI8:
 889              		.cfi_def_cfa_offset 12
 890              		.cfi_offset 4, -12
 891              		.cfi_offset 5, -8
 892              		.cfi_offset 6, -4
 193:./Libraries/STM32_USB_Host_Library/Core/Src/usbh_ctlreq.c ****   if (phost->RequestState == CMD_SEND)
 893              		.loc 1 193 1 view .LVU323
 894 0002 0C46     		mov	r4, r1
 895 0004 1946     		mov	r1, r3
 896              	.LVL83:
 194:./Libraries/STM32_USB_Host_Library/Core/Src/usbh_ctlreq.c ****   {
 897              		.loc 1 194 6 view .LVU324
 898 0006 8378     		ldrb	r3, [r0, #2]	@ zero_extendqisi2
 899              	.LVL84:
 193:./Libraries/STM32_USB_Host_Library/Core/Src/usbh_ctlreq.c ****   if (phost->RequestState == CMD_SEND)
 900              		.loc 1 193 1 view .LVU325
 901 0008 1546     		mov	r5, r2
 902 000a BDF80C20 		ldrh	r2, [sp, #12]
 903              	.LVL85:
 194:./Libraries/STM32_USB_Host_Library/Core/Src/usbh_ctlreq.c ****   {
 904              		.loc 1 194 6 view .LVU326
 905 000e 012B     		cmp	r3, #1
 906 0010 10D1     		bne	.L57
 196:./Libraries/STM32_USB_Host_Library/Core/Src/usbh_ctlreq.c ****     phost->Control.setup.b.bRequest = USB_REQ_GET_DESCRIPTOR;
 907              		.loc 1 196 5 is_stmt 1 view .LVU327
 200:./Libraries/STM32_USB_Host_Library/Core/Src/usbh_ctlreq.c ****     {
 908              		.loc 1 200 8 is_stmt 0 view .LVU328
 909 0012 05F47F46 		and	r6, r5, #65280
 206:./Libraries/STM32_USB_Host_Library/Core/Src/usbh_ctlreq.c ****     }
 910              		.loc 1 206 39 view .LVU329
 911 0016 40F20943 		movw	r3, #1033
 196:./Libraries/STM32_USB_Host_Library/Core/Src/usbh_ctlreq.c ****     phost->Control.setup.b.bRequest = USB_REQ_GET_DESCRIPTOR;
 912              		.loc 1 196 42 view .LVU330
 913 001a 64F07F04 		orn	r4, r4, #127
 198:./Libraries/STM32_USB_Host_Library/Core/Src/usbh_ctlreq.c **** 
 914              		.loc 1 198 37 view .LVU331
 915 001e 4582     		strh	r5, [r0, #18]	@ movhi
 200:./Libraries/STM32_USB_Host_Library/Core/Src/usbh_ctlreq.c ****     {
 916              		.loc 1 200 8 view .LVU332
 917 0020 B6F5407F 		cmp	r6, #768
 197:./Libraries/STM32_USB_Host_Library/Core/Src/usbh_ctlreq.c ****     phost->Control.setup.b.wValue.w = value_idx;
ARM GAS  /tmp/ccOpRQ1g.s 			page 39


 918              		.loc 1 197 37 view .LVU333
 919 0024 4FF00605 		mov	r5, #6
 196:./Libraries/STM32_USB_Host_Library/Core/Src/usbh_ctlreq.c ****     phost->Control.setup.b.bRequest = USB_REQ_GET_DESCRIPTOR;
 920              		.loc 1 196 42 view .LVU334
 921 0028 0474     		strb	r4, [r0, #16]
 197:./Libraries/STM32_USB_Host_Library/Core/Src/usbh_ctlreq.c ****     phost->Control.setup.b.wValue.w = value_idx;
 922              		.loc 1 197 5 is_stmt 1 view .LVU335
 206:./Libraries/STM32_USB_Host_Library/Core/Src/usbh_ctlreq.c ****     }
 923              		.loc 1 206 39 is_stmt 0 view .LVU336
 924 002a 18BF     		it	ne
 925 002c 0023     		movne	r3, #0
 208:./Libraries/STM32_USB_Host_Library/Core/Src/usbh_ctlreq.c ****   }
 926              		.loc 1 208 38 view .LVU337
 927 002e C282     		strh	r2, [r0, #22]	@ movhi
 197:./Libraries/STM32_USB_Host_Library/Core/Src/usbh_ctlreq.c ****     phost->Control.setup.b.wValue.w = value_idx;
 928              		.loc 1 197 37 view .LVU338
 929 0030 4574     		strb	r5, [r0, #17]
 198:./Libraries/STM32_USB_Host_Library/Core/Src/usbh_ctlreq.c **** 
 930              		.loc 1 198 5 is_stmt 1 view .LVU339
 200:./Libraries/STM32_USB_Host_Library/Core/Src/usbh_ctlreq.c ****     {
 931              		.loc 1 200 5 view .LVU340
 932 0032 8382     		strh	r3, [r0, #20]	@ movhi
 208:./Libraries/STM32_USB_Host_Library/Core/Src/usbh_ctlreq.c ****   }
 933              		.loc 1 208 5 view .LVU341
 934              	.L57:
 211:./Libraries/STM32_USB_Host_Library/Core/Src/usbh_ctlreq.c **** }
 935              		.loc 1 211 3 view .LVU342
 212:./Libraries/STM32_USB_Host_Library/Core/Src/usbh_ctlreq.c **** 
 936              		.loc 1 212 1 is_stmt 0 view .LVU343
 937 0034 70BC     		pop	{r4, r5, r6}
 938              	.LCFI9:
 939              		.cfi_restore 6
 940              		.cfi_restore 5
 941              		.cfi_restore 4
 942              		.cfi_def_cfa_offset 0
 943              	.LVL86:
 211:./Libraries/STM32_USB_Host_Library/Core/Src/usbh_ctlreq.c **** }
 944              		.loc 1 211 10 view .LVU344
 945 0036 FFF7FEBF 		b	USBH_CtlReq
 946              	.LVL87:
 211:./Libraries/STM32_USB_Host_Library/Core/Src/usbh_ctlreq.c **** }
 947              		.loc 1 211 10 view .LVU345
 948              		.cfi_endproc
 949              	.LFE341:
 951 003a 00BF     		.section	.text.USBH_Get_DevDesc,"ax",%progbits
 952              		.align	1
 953              		.p2align 2,,3
 954              		.global	USBH_Get_DevDesc
 955              		.syntax unified
 956              		.thumb
 957              		.thumb_func
 958              		.fpu fpv5-d16
 960              	USBH_Get_DevDesc:
 961              	.LVL88:
 962              	.LFB338:
 104:./Libraries/STM32_USB_Host_Library/Core/Src/usbh_ctlreq.c ****   USBH_StatusTypeDef status;
 963              		.loc 1 104 1 is_stmt 1 view -0
ARM GAS  /tmp/ccOpRQ1g.s 			page 40


 964              		.cfi_startproc
 965              		@ args = 0, pretend = 0, frame = 0
 966              		@ frame_needed = 0, uses_anonymous_args = 0
 105:./Libraries/STM32_USB_Host_Library/Core/Src/usbh_ctlreq.c **** 
 967              		.loc 1 105 3 view .LVU347
 107:./Libraries/STM32_USB_Host_Library/Core/Src/usbh_ctlreq.c ****                                    USB_REQ_RECIPIENT_DEVICE | USB_REQ_TYPE_STANDARD,
 968              		.loc 1 107 3 view .LVU348
 104:./Libraries/STM32_USB_Host_Library/Core/Src/usbh_ctlreq.c ****   USBH_StatusTypeDef status;
 969              		.loc 1 104 1 is_stmt 0 view .LVU349
 970 0000 38B5     		push	{r3, r4, r5, lr}
 971              	.LCFI10:
 972              		.cfi_def_cfa_offset 16
 973              		.cfi_offset 3, -16
 974              		.cfi_offset 4, -12
 975              		.cfi_offset 5, -8
 976              		.cfi_offset 14, -4
 977              	.LBB62:
 978              	.LBB63:
 194:./Libraries/STM32_USB_Host_Library/Core/Src/usbh_ctlreq.c ****   {
 979              		.loc 1 194 6 view .LVU350
 980 0002 8378     		ldrb	r3, [r0, #2]	@ zero_extendqisi2
 981              	.LBE63:
 982              	.LBE62:
 107:./Libraries/STM32_USB_Host_Library/Core/Src/usbh_ctlreq.c ****                                    USB_REQ_RECIPIENT_DEVICE | USB_REQ_TYPE_STANDARD,
 983              		.loc 1 107 17 view .LVU351
 984 0004 0D46     		mov	r5, r1
 104:./Libraries/STM32_USB_Host_Library/Core/Src/usbh_ctlreq.c ****   USBH_StatusTypeDef status;
 985              		.loc 1 104 1 view .LVU352
 986 0006 0446     		mov	r4, r0
 987              	.LVL89:
 988              	.LBB66:
 989              	.LBI62:
 188:./Libraries/STM32_USB_Host_Library/Core/Src/usbh_ctlreq.c ****                                       uint8_t  req_type,
 990              		.loc 1 188 20 is_stmt 1 view .LVU353
 991              	.LBB64:
 194:./Libraries/STM32_USB_Host_Library/Core/Src/usbh_ctlreq.c ****   {
 992              		.loc 1 194 3 view .LVU354
 993              	.LBE64:
 994              	.LBE66:
 109:./Libraries/STM32_USB_Host_Library/Core/Src/usbh_ctlreq.c ****                                    (uint16_t)length)) == USBH_OK)
 995              		.loc 1 109 66 is_stmt 0 view .LVU355
 996 0008 00F50771 		add	r1, r0, #540
 997              	.LVL90:
 998              	.LBB67:
 999              	.LBB65:
 194:./Libraries/STM32_USB_Host_Library/Core/Src/usbh_ctlreq.c ****   {
 1000              		.loc 1 194 6 view .LVU356
 1001 000c 012B     		cmp	r3, #1
 1002 000e 04D1     		bne	.L62
 196:./Libraries/STM32_USB_Host_Library/Core/Src/usbh_ctlreq.c ****     phost->Control.setup.b.bRequest = USB_REQ_GET_DESCRIPTOR;
 1003              		.loc 1 196 5 is_stmt 1 view .LVU357
 197:./Libraries/STM32_USB_Host_Library/Core/Src/usbh_ctlreq.c ****     phost->Control.setup.b.wValue.w = value_idx;
 1004              		.loc 1 197 5 view .LVU358
 198:./Libraries/STM32_USB_Host_Library/Core/Src/usbh_ctlreq.c **** 
 1005              		.loc 1 198 5 view .LVU359
 200:./Libraries/STM32_USB_Host_Library/Core/Src/usbh_ctlreq.c ****     {
 1006              		.loc 1 200 5 view .LVU360
ARM GAS  /tmp/ccOpRQ1g.s 			page 41


 206:./Libraries/STM32_USB_Host_Library/Core/Src/usbh_ctlreq.c ****     }
 1007              		.loc 1 206 7 view .LVU361
 196:./Libraries/STM32_USB_Host_Library/Core/Src/usbh_ctlreq.c ****     phost->Control.setup.b.bRequest = USB_REQ_GET_DESCRIPTOR;
 1008              		.loc 1 196 42 is_stmt 0 view .LVU362
 1009 0010 224A     		ldr	r2, .L68
 206:./Libraries/STM32_USB_Host_Library/Core/Src/usbh_ctlreq.c ****     }
 1010              		.loc 1 206 39 view .LVU363
 1011 0012 0023     		movs	r3, #0
 208:./Libraries/STM32_USB_Host_Library/Core/Src/usbh_ctlreq.c ****   }
 1012              		.loc 1 208 38 view .LVU364
 1013 0014 C582     		strh	r5, [r0, #22]	@ movhi
 196:./Libraries/STM32_USB_Host_Library/Core/Src/usbh_ctlreq.c ****     phost->Control.setup.b.bRequest = USB_REQ_GET_DESCRIPTOR;
 1014              		.loc 1 196 42 view .LVU365
 1015 0016 0261     		str	r2, [r0, #16]
 206:./Libraries/STM32_USB_Host_Library/Core/Src/usbh_ctlreq.c ****     }
 1016              		.loc 1 206 39 view .LVU366
 1017 0018 8382     		strh	r3, [r0, #20]	@ movhi
 208:./Libraries/STM32_USB_Host_Library/Core/Src/usbh_ctlreq.c ****   }
 1018              		.loc 1 208 5 is_stmt 1 view .LVU367
 1019              	.L62:
 211:./Libraries/STM32_USB_Host_Library/Core/Src/usbh_ctlreq.c **** }
 1020              		.loc 1 211 3 view .LVU368
 211:./Libraries/STM32_USB_Host_Library/Core/Src/usbh_ctlreq.c **** }
 1021              		.loc 1 211 10 is_stmt 0 view .LVU369
 1022 001a 2A46     		mov	r2, r5
 1023 001c 2046     		mov	r0, r4
 1024              	.LVL91:
 211:./Libraries/STM32_USB_Host_Library/Core/Src/usbh_ctlreq.c **** }
 1025              		.loc 1 211 10 view .LVU370
 1026 001e FFF7FEFF 		bl	USBH_CtlReq
 1027              	.LVL92:
 211:./Libraries/STM32_USB_Host_Library/Core/Src/usbh_ctlreq.c **** }
 1028              		.loc 1 211 10 view .LVU371
 1029              	.LBE65:
 1030              	.LBE67:
 107:./Libraries/STM32_USB_Host_Library/Core/Src/usbh_ctlreq.c ****                                    USB_REQ_RECIPIENT_DEVICE | USB_REQ_TYPE_STANDARD,
 1031              		.loc 1 107 6 view .LVU372
 1032 0022 00B1     		cbz	r0, .L67
 1033              	.L64:
 117:./Libraries/STM32_USB_Host_Library/Core/Src/usbh_ctlreq.c **** }
 1034              		.loc 1 117 3 is_stmt 1 view .LVU373
 118:./Libraries/STM32_USB_Host_Library/Core/Src/usbh_ctlreq.c **** 
 1035              		.loc 1 118 1 is_stmt 0 view .LVU374
 1036 0024 38BD     		pop	{r3, r4, r5, pc}
 1037              	.LVL93:
 1038              	.L67:
 113:./Libraries/STM32_USB_Host_Library/Core/Src/usbh_ctlreq.c ****                       (uint16_t)length);
 1039              		.loc 1 113 5 is_stmt 1 view .LVU375
 1040              	.LBB68:
 1041              	.LBI68:
 346:./Libraries/STM32_USB_Host_Library/Core/Src/usbh_ctlreq.c ****                                uint16_t length)
 1042              		.loc 1 346 14 view .LVU376
 1043              	.LBB69:
 349:./Libraries/STM32_USB_Host_Library/Core/Src/usbh_ctlreq.c ****   dev_desc->bDescriptorType    = *(uint8_t *)(buf +  1);
 1044              		.loc 1 349 3 view .LVU377
 349:./Libraries/STM32_USB_Host_Library/Core/Src/usbh_ctlreq.c ****   dev_desc->bDescriptorType    = *(uint8_t *)(buf +  1);
 1045              		.loc 1 349 32 is_stmt 0 view .LVU378
ARM GAS  /tmp/ccOpRQ1g.s 			page 42


 1046 0026 94F81C32 		ldrb	r3, [r4, #540]	@ zero_extendqisi2
 357:./Libraries/STM32_USB_Host_Library/Core/Src/usbh_ctlreq.c ****   {
 1047              		.loc 1 357 6 view .LVU379
 1048 002a 082D     		cmp	r5, #8
 350:./Libraries/STM32_USB_Host_Library/Core/Src/usbh_ctlreq.c ****   dev_desc->bcdUSB             = LE16(buf +  2);
 1049              		.loc 1 350 32 view .LVU380
 1050 002c 94F81D12 		ldrb	r1, [r4, #541]	@ zero_extendqisi2
 351:./Libraries/STM32_USB_Host_Library/Core/Src/usbh_ctlreq.c ****   dev_desc->bDeviceClass       = *(uint8_t *)(buf +  4);
 1051              		.loc 1 351 34 view .LVU381
 1052 0030 B4F81E22 		ldrh	r2, [r4, #542]	@ unaligned
 349:./Libraries/STM32_USB_Host_Library/Core/Src/usbh_ctlreq.c ****   dev_desc->bDescriptorType    = *(uint8_t *)(buf +  1);
 1053              		.loc 1 349 32 view .LVU382
 1054 0034 84F82634 		strb	r3, [r4, #1062]
 350:./Libraries/STM32_USB_Host_Library/Core/Src/usbh_ctlreq.c ****   dev_desc->bcdUSB             = LE16(buf +  2);
 1055              		.loc 1 350 3 is_stmt 1 view .LVU383
 352:./Libraries/STM32_USB_Host_Library/Core/Src/usbh_ctlreq.c ****   dev_desc->bDeviceSubClass    = *(uint8_t *)(buf +  5);
 1056              		.loc 1 352 32 is_stmt 0 view .LVU384
 1057 0038 94F82032 		ldrb	r3, [r4, #544]	@ zero_extendqisi2
 350:./Libraries/STM32_USB_Host_Library/Core/Src/usbh_ctlreq.c ****   dev_desc->bcdUSB             = LE16(buf +  2);
 1058              		.loc 1 350 32 view .LVU385
 1059 003c 84F82714 		strb	r1, [r4, #1063]
 351:./Libraries/STM32_USB_Host_Library/Core/Src/usbh_ctlreq.c ****   dev_desc->bDeviceClass       = *(uint8_t *)(buf +  4);
 1060              		.loc 1 351 3 is_stmt 1 view .LVU386
 351:./Libraries/STM32_USB_Host_Library/Core/Src/usbh_ctlreq.c ****   dev_desc->bDeviceClass       = *(uint8_t *)(buf +  4);
 1061              		.loc 1 351 32 is_stmt 0 view .LVU387
 1062 0040 A4F82824 		strh	r2, [r4, #1064]	@ movhi
 352:./Libraries/STM32_USB_Host_Library/Core/Src/usbh_ctlreq.c ****   dev_desc->bDeviceSubClass    = *(uint8_t *)(buf +  5);
 1063              		.loc 1 352 3 is_stmt 1 view .LVU388
 353:./Libraries/STM32_USB_Host_Library/Core/Src/usbh_ctlreq.c ****   dev_desc->bDeviceProtocol    = *(uint8_t *)(buf +  6);
 1064              		.loc 1 353 32 is_stmt 0 view .LVU389
 1065 0044 94F82112 		ldrb	r1, [r4, #545]	@ zero_extendqisi2
 354:./Libraries/STM32_USB_Host_Library/Core/Src/usbh_ctlreq.c ****   dev_desc->bMaxPacketSize     = *(uint8_t *)(buf +  7);
 1066              		.loc 1 354 32 view .LVU390
 1067 0048 94F82222 		ldrb	r2, [r4, #546]	@ zero_extendqisi2
 352:./Libraries/STM32_USB_Host_Library/Core/Src/usbh_ctlreq.c ****   dev_desc->bDeviceSubClass    = *(uint8_t *)(buf +  5);
 1068              		.loc 1 352 32 view .LVU391
 1069 004c 84F82A34 		strb	r3, [r4, #1066]
 353:./Libraries/STM32_USB_Host_Library/Core/Src/usbh_ctlreq.c ****   dev_desc->bDeviceProtocol    = *(uint8_t *)(buf +  6);
 1070              		.loc 1 353 3 is_stmt 1 view .LVU392
 355:./Libraries/STM32_USB_Host_Library/Core/Src/usbh_ctlreq.c **** 
 1071              		.loc 1 355 32 is_stmt 0 view .LVU393
 1072 0050 94F82332 		ldrb	r3, [r4, #547]	@ zero_extendqisi2
 353:./Libraries/STM32_USB_Host_Library/Core/Src/usbh_ctlreq.c ****   dev_desc->bDeviceProtocol    = *(uint8_t *)(buf +  6);
 1073              		.loc 1 353 32 view .LVU394
 1074 0054 84F82B14 		strb	r1, [r4, #1067]
 354:./Libraries/STM32_USB_Host_Library/Core/Src/usbh_ctlreq.c ****   dev_desc->bMaxPacketSize     = *(uint8_t *)(buf +  7);
 1075              		.loc 1 354 3 is_stmt 1 view .LVU395
 354:./Libraries/STM32_USB_Host_Library/Core/Src/usbh_ctlreq.c ****   dev_desc->bMaxPacketSize     = *(uint8_t *)(buf +  7);
 1076              		.loc 1 354 32 is_stmt 0 view .LVU396
 1077 0058 84F82C24 		strb	r2, [r4, #1068]
 355:./Libraries/STM32_USB_Host_Library/Core/Src/usbh_ctlreq.c **** 
 1078              		.loc 1 355 3 is_stmt 1 view .LVU397
 355:./Libraries/STM32_USB_Host_Library/Core/Src/usbh_ctlreq.c **** 
 1079              		.loc 1 355 32 is_stmt 0 view .LVU398
 1080 005c 84F82D34 		strb	r3, [r4, #1069]
 357:./Libraries/STM32_USB_Host_Library/Core/Src/usbh_ctlreq.c ****   {
 1081              		.loc 1 357 3 is_stmt 1 view .LVU399
ARM GAS  /tmp/ccOpRQ1g.s 			page 43


 357:./Libraries/STM32_USB_Host_Library/Core/Src/usbh_ctlreq.c ****   {
 1082              		.loc 1 357 6 is_stmt 0 view .LVU400
 1083 0060 E0D9     		bls	.L64
 361:./Libraries/STM32_USB_Host_Library/Core/Src/usbh_ctlreq.c ****     dev_desc->idProduct          = LE16(buf + 10);
 1084              		.loc 1 361 5 is_stmt 1 view .LVU401
 361:./Libraries/STM32_USB_Host_Library/Core/Src/usbh_ctlreq.c ****     dev_desc->idProduct          = LE16(buf + 10);
 1085              		.loc 1 361 36 is_stmt 0 view .LVU402
 1086 0062 B4F82412 		ldrh	r1, [r4, #548]	@ unaligned
 362:./Libraries/STM32_USB_Host_Library/Core/Src/usbh_ctlreq.c ****     dev_desc->bcdDevice          = LE16(buf + 12);
 1087              		.loc 1 362 36 view .LVU403
 1088 0066 B4F82622 		ldrh	r2, [r4, #550]	@ unaligned
 363:./Libraries/STM32_USB_Host_Library/Core/Src/usbh_ctlreq.c ****     dev_desc->iManufacturer      = *(uint8_t *)(buf + 14);
 1089              		.loc 1 363 36 view .LVU404
 1090 006a B4F82832 		ldrh	r3, [r4, #552]	@ unaligned
 364:./Libraries/STM32_USB_Host_Library/Core/Src/usbh_ctlreq.c ****     dev_desc->iProduct           = *(uint8_t *)(buf + 15);
 1091              		.loc 1 364 34 view .LVU405
 1092 006e 94F82A52 		ldrb	r5, [r4, #554]	@ zero_extendqisi2
 1093              	.LVL94:
 361:./Libraries/STM32_USB_Host_Library/Core/Src/usbh_ctlreq.c ****     dev_desc->idProduct          = LE16(buf + 10);
 1094              		.loc 1 361 34 view .LVU406
 1095 0072 A4F82E14 		strh	r1, [r4, #1070]	@ movhi
 362:./Libraries/STM32_USB_Host_Library/Core/Src/usbh_ctlreq.c ****     dev_desc->bcdDevice          = LE16(buf + 12);
 1096              		.loc 1 362 5 is_stmt 1 view .LVU407
 362:./Libraries/STM32_USB_Host_Library/Core/Src/usbh_ctlreq.c ****     dev_desc->bcdDevice          = LE16(buf + 12);
 1097              		.loc 1 362 34 is_stmt 0 view .LVU408
 1098 0076 A4F83024 		strh	r2, [r4, #1072]	@ movhi
 363:./Libraries/STM32_USB_Host_Library/Core/Src/usbh_ctlreq.c ****     dev_desc->iManufacturer      = *(uint8_t *)(buf + 14);
 1099              		.loc 1 363 5 is_stmt 1 view .LVU409
 365:./Libraries/STM32_USB_Host_Library/Core/Src/usbh_ctlreq.c ****     dev_desc->iSerialNumber      = *(uint8_t *)(buf + 16);
 1100              		.loc 1 365 34 is_stmt 0 view .LVU410
 1101 007a 94F82B12 		ldrb	r1, [r4, #555]	@ zero_extendqisi2
 366:./Libraries/STM32_USB_Host_Library/Core/Src/usbh_ctlreq.c ****     dev_desc->bNumConfigurations = *(uint8_t *)(buf + 17);
 1102              		.loc 1 366 34 view .LVU411
 1103 007e 94F82C22 		ldrb	r2, [r4, #556]	@ zero_extendqisi2
 363:./Libraries/STM32_USB_Host_Library/Core/Src/usbh_ctlreq.c ****     dev_desc->iManufacturer      = *(uint8_t *)(buf + 14);
 1104              		.loc 1 363 34 view .LVU412
 1105 0082 A4F83234 		strh	r3, [r4, #1074]	@ movhi
 364:./Libraries/STM32_USB_Host_Library/Core/Src/usbh_ctlreq.c ****     dev_desc->iProduct           = *(uint8_t *)(buf + 15);
 1106              		.loc 1 364 5 is_stmt 1 view .LVU413
 367:./Libraries/STM32_USB_Host_Library/Core/Src/usbh_ctlreq.c ****   }
 1107              		.loc 1 367 34 is_stmt 0 view .LVU414
 1108 0086 94F82D32 		ldrb	r3, [r4, #557]	@ zero_extendqisi2
 364:./Libraries/STM32_USB_Host_Library/Core/Src/usbh_ctlreq.c ****     dev_desc->iProduct           = *(uint8_t *)(buf + 15);
 1109              		.loc 1 364 34 view .LVU415
 1110 008a 84F83454 		strb	r5, [r4, #1076]
 365:./Libraries/STM32_USB_Host_Library/Core/Src/usbh_ctlreq.c ****     dev_desc->iSerialNumber      = *(uint8_t *)(buf + 16);
 1111              		.loc 1 365 5 is_stmt 1 view .LVU416
 365:./Libraries/STM32_USB_Host_Library/Core/Src/usbh_ctlreq.c ****     dev_desc->iSerialNumber      = *(uint8_t *)(buf + 16);
 1112              		.loc 1 365 34 is_stmt 0 view .LVU417
 1113 008e 84F83514 		strb	r1, [r4, #1077]
 366:./Libraries/STM32_USB_Host_Library/Core/Src/usbh_ctlreq.c ****     dev_desc->bNumConfigurations = *(uint8_t *)(buf + 17);
 1114              		.loc 1 366 5 is_stmt 1 view .LVU418
 366:./Libraries/STM32_USB_Host_Library/Core/Src/usbh_ctlreq.c ****     dev_desc->bNumConfigurations = *(uint8_t *)(buf + 17);
 1115              		.loc 1 366 34 is_stmt 0 view .LVU419
 1116 0092 84F83624 		strb	r2, [r4, #1078]
 367:./Libraries/STM32_USB_Host_Library/Core/Src/usbh_ctlreq.c ****   }
 1117              		.loc 1 367 5 is_stmt 1 view .LVU420
ARM GAS  /tmp/ccOpRQ1g.s 			page 44


 367:./Libraries/STM32_USB_Host_Library/Core/Src/usbh_ctlreq.c ****   }
 1118              		.loc 1 367 34 is_stmt 0 view .LVU421
 1119 0096 84F83734 		strb	r3, [r4, #1079]
 1120              	.LVL95:
 367:./Libraries/STM32_USB_Host_Library/Core/Src/usbh_ctlreq.c ****   }
 1121              		.loc 1 367 34 view .LVU422
 1122              	.LBE69:
 1123              	.LBE68:
 117:./Libraries/STM32_USB_Host_Library/Core/Src/usbh_ctlreq.c **** }
 1124              		.loc 1 117 3 is_stmt 1 view .LVU423
 118:./Libraries/STM32_USB_Host_Library/Core/Src/usbh_ctlreq.c **** 
 1125              		.loc 1 118 1 is_stmt 0 view .LVU424
 1126 009a 38BD     		pop	{r3, r4, r5, pc}
 1127              	.LVL96:
 1128              	.L69:
 118:./Libraries/STM32_USB_Host_Library/Core/Src/usbh_ctlreq.c **** 
 1129              		.loc 1 118 1 view .LVU425
 1130              		.align	2
 1131              	.L68:
 1132 009c 80060001 		.word	16778880
 1133              		.cfi_endproc
 1134              	.LFE338:
 1136              		.section	.text.USBH_Get_CfgDesc,"ax",%progbits
 1137              		.align	1
 1138              		.p2align 2,,3
 1139              		.global	USBH_Get_CfgDesc
 1140              		.syntax unified
 1141              		.thumb
 1142              		.thumb_func
 1143              		.fpu fpv5-d16
 1145              	USBH_Get_CfgDesc:
 1146              	.LVL97:
 1147              	.LFB339:
 133:./Libraries/STM32_USB_Host_Library/Core/Src/usbh_ctlreq.c ****   USBH_StatusTypeDef status;
 1148              		.loc 1 133 1 is_stmt 1 view -0
 1149              		.cfi_startproc
 1150              		@ args = 0, pretend = 0, frame = 0
 1151              		@ frame_needed = 0, uses_anonymous_args = 0
 134:./Libraries/STM32_USB_Host_Library/Core/Src/usbh_ctlreq.c ****   uint8_t *pData = phost->device.CfgDesc_Raw;;
 1152              		.loc 1 134 3 view .LVU427
 135:./Libraries/STM32_USB_Host_Library/Core/Src/usbh_ctlreq.c **** 
 1153              		.loc 1 135 3 view .LVU428
 133:./Libraries/STM32_USB_Host_Library/Core/Src/usbh_ctlreq.c ****   USBH_StatusTypeDef status;
 1154              		.loc 1 133 1 is_stmt 0 view .LVU429
 1155 0000 2DE9F843 		push	{r3, r4, r5, r6, r7, r8, r9, lr}
 1156              	.LCFI11:
 1157              		.cfi_def_cfa_offset 32
 1158              		.cfi_offset 3, -32
 1159              		.cfi_offset 4, -28
 1160              		.cfi_offset 5, -24
 1161              		.cfi_offset 6, -20
 1162              		.cfi_offset 7, -16
 1163              		.cfi_offset 8, -12
 1164              		.cfi_offset 9, -8
 1165              		.cfi_offset 14, -4
 1166              	.LBB82:
 1167              	.LBB83:
ARM GAS  /tmp/ccOpRQ1g.s 			page 45


 194:./Libraries/STM32_USB_Host_Library/Core/Src/usbh_ctlreq.c ****   {
 1168              		.loc 1 194 6 view .LVU430
 1169 0004 8378     		ldrb	r3, [r0, #2]	@ zero_extendqisi2
 1170              	.LBE83:
 1171              	.LBE82:
 133:./Libraries/STM32_USB_Host_Library/Core/Src/usbh_ctlreq.c ****   USBH_StatusTypeDef status;
 1172              		.loc 1 133 1 view .LVU431
 1173 0006 0446     		mov	r4, r0
 1174 0008 0E46     		mov	r6, r1
 135:./Libraries/STM32_USB_Host_Library/Core/Src/usbh_ctlreq.c **** 
 1175              		.loc 1 135 12 view .LVU432
 1176 000a 00F11C05 		add	r5, r0, #28
 1177              	.LVL98:
 135:./Libraries/STM32_USB_Host_Library/Core/Src/usbh_ctlreq.c **** 
 1178              		.loc 1 135 46 is_stmt 1 view .LVU433
 137:./Libraries/STM32_USB_Host_Library/Core/Src/usbh_ctlreq.c ****                                    USB_DESC_CONFIGURATION, pData, length)) == USBH_OK)
 1179              		.loc 1 137 3 view .LVU434
 1180              	.LBB85:
 1181              	.LBI82:
 188:./Libraries/STM32_USB_Host_Library/Core/Src/usbh_ctlreq.c ****                                       uint8_t  req_type,
 1182              		.loc 1 188 20 view .LVU435
 1183              	.LBB84:
 194:./Libraries/STM32_USB_Host_Library/Core/Src/usbh_ctlreq.c ****   {
 1184              		.loc 1 194 3 view .LVU436
 194:./Libraries/STM32_USB_Host_Library/Core/Src/usbh_ctlreq.c ****   {
 1185              		.loc 1 194 6 is_stmt 0 view .LVU437
 1186 000e 012B     		cmp	r3, #1
 1187 0010 04D1     		bne	.L71
 196:./Libraries/STM32_USB_Host_Library/Core/Src/usbh_ctlreq.c ****     phost->Control.setup.b.bRequest = USB_REQ_GET_DESCRIPTOR;
 1188              		.loc 1 196 5 is_stmt 1 view .LVU438
 197:./Libraries/STM32_USB_Host_Library/Core/Src/usbh_ctlreq.c ****     phost->Control.setup.b.wValue.w = value_idx;
 1189              		.loc 1 197 5 view .LVU439
 198:./Libraries/STM32_USB_Host_Library/Core/Src/usbh_ctlreq.c **** 
 1190              		.loc 1 198 5 view .LVU440
 200:./Libraries/STM32_USB_Host_Library/Core/Src/usbh_ctlreq.c ****     {
 1191              		.loc 1 200 5 view .LVU441
 206:./Libraries/STM32_USB_Host_Library/Core/Src/usbh_ctlreq.c ****     }
 1192              		.loc 1 206 7 view .LVU442
 196:./Libraries/STM32_USB_Host_Library/Core/Src/usbh_ctlreq.c ****     phost->Control.setup.b.bRequest = USB_REQ_GET_DESCRIPTOR;
 1193              		.loc 1 196 42 is_stmt 0 view .LVU443
 1194 0012 4E4A     		ldr	r2, .L100
 206:./Libraries/STM32_USB_Host_Library/Core/Src/usbh_ctlreq.c ****     }
 1195              		.loc 1 206 39 view .LVU444
 1196 0014 0023     		movs	r3, #0
 208:./Libraries/STM32_USB_Host_Library/Core/Src/usbh_ctlreq.c ****   }
 1197              		.loc 1 208 38 view .LVU445
 1198 0016 E182     		strh	r1, [r4, #22]	@ movhi
 196:./Libraries/STM32_USB_Host_Library/Core/Src/usbh_ctlreq.c ****     phost->Control.setup.b.bRequest = USB_REQ_GET_DESCRIPTOR;
 1199              		.loc 1 196 42 view .LVU446
 1200 0018 0261     		str	r2, [r0, #16]
 206:./Libraries/STM32_USB_Host_Library/Core/Src/usbh_ctlreq.c ****     }
 1201              		.loc 1 206 39 view .LVU447
 1202 001a 8382     		strh	r3, [r0, #20]	@ movhi
 208:./Libraries/STM32_USB_Host_Library/Core/Src/usbh_ctlreq.c ****   }
 1203              		.loc 1 208 5 is_stmt 1 view .LVU448
 1204              	.L71:
 211:./Libraries/STM32_USB_Host_Library/Core/Src/usbh_ctlreq.c **** }
ARM GAS  /tmp/ccOpRQ1g.s 			page 46


 1205              		.loc 1 211 3 view .LVU449
 211:./Libraries/STM32_USB_Host_Library/Core/Src/usbh_ctlreq.c **** }
 1206              		.loc 1 211 10 is_stmt 0 view .LVU450
 1207 001c 3246     		mov	r2, r6
 1208 001e 2946     		mov	r1, r5
 1209              	.LVL99:
 211:./Libraries/STM32_USB_Host_Library/Core/Src/usbh_ctlreq.c **** }
 1210              		.loc 1 211 10 view .LVU451
 1211 0020 2046     		mov	r0, r4
 1212              	.LVL100:
 211:./Libraries/STM32_USB_Host_Library/Core/Src/usbh_ctlreq.c **** }
 1213              		.loc 1 211 10 view .LVU452
 1214 0022 FFF7FEFF 		bl	USBH_CtlReq
 1215              	.LVL101:
 211:./Libraries/STM32_USB_Host_Library/Core/Src/usbh_ctlreq.c **** }
 1216              		.loc 1 211 10 view .LVU453
 1217              	.LBE84:
 1218              	.LBE85:
 137:./Libraries/STM32_USB_Host_Library/Core/Src/usbh_ctlreq.c ****                                    USB_DESC_CONFIGURATION, pData, length)) == USBH_OK)
 1219              		.loc 1 137 6 view .LVU454
 1220 0026 08B1     		cbz	r0, .L98
 1221              	.LVL102:
 1222              	.L82:
 145:./Libraries/STM32_USB_Host_Library/Core/Src/usbh_ctlreq.c **** 
 1223              		.loc 1 145 1 view .LVU455
 1224 0028 BDE8F883 		pop	{r3, r4, r5, r6, r7, r8, r9, pc}
 1225              	.LVL103:
 1226              	.L98:
 141:./Libraries/STM32_USB_Host_Library/Core/Src/usbh_ctlreq.c ****   }
 1227              		.loc 1 141 5 is_stmt 1 view .LVU456
 1228              	.LBB86:
 1229              	.LBI86:
 380:./Libraries/STM32_USB_Host_Library/Core/Src/usbh_ctlreq.c ****                               uint16_t length)
 1230              		.loc 1 380 13 view .LVU457
 1231              	.LBB87:
 383:./Libraries/STM32_USB_Host_Library/Core/Src/usbh_ctlreq.c ****   USBH_EpDescTypeDef           *pep;
 1232              		.loc 1 383 3 view .LVU458
 384:./Libraries/STM32_USB_Host_Library/Core/Src/usbh_ctlreq.c ****   USBH_DescHeader_t            *pdesc = (USBH_DescHeader_t *)(void *)buf;
 1233              		.loc 1 384 3 view .LVU459
 385:./Libraries/STM32_USB_Host_Library/Core/Src/usbh_ctlreq.c ****   uint16_t                     ptr;
 1234              		.loc 1 385 3 view .LVU460
 386:./Libraries/STM32_USB_Host_Library/Core/Src/usbh_ctlreq.c ****   uint8_t                      if_ix = 0U;
 1235              		.loc 1 386 3 view .LVU461
 387:./Libraries/STM32_USB_Host_Library/Core/Src/usbh_ctlreq.c ****   uint8_t                      ep_ix = 0U;
 1236              		.loc 1 387 3 view .LVU462
 388:./Libraries/STM32_USB_Host_Library/Core/Src/usbh_ctlreq.c **** 
 1237              		.loc 1 388 3 view .LVU463
 390:./Libraries/STM32_USB_Host_Library/Core/Src/usbh_ctlreq.c **** 
 1238              		.loc 1 390 3 view .LVU464
 393:./Libraries/STM32_USB_Host_Library/Core/Src/usbh_ctlreq.c ****   cfg_desc->bDescriptorType     = *(uint8_t *)(buf + 1);
 1239              		.loc 1 393 3 view .LVU465
 393:./Libraries/STM32_USB_Host_Library/Core/Src/usbh_ctlreq.c ****   cfg_desc->bDescriptorType     = *(uint8_t *)(buf + 1);
 1240              		.loc 1 393 33 is_stmt 0 view .LVU466
 1241 002c 237F     		ldrb	r3, [r4, #28]	@ zero_extendqisi2
 402:./Libraries/STM32_USB_Host_Library/Core/Src/usbh_ctlreq.c ****   {
 1242              		.loc 1 402 6 view .LVU467
 1243 002e 092E     		cmp	r6, #9
ARM GAS  /tmp/ccOpRQ1g.s 			page 47


 394:./Libraries/STM32_USB_Host_Library/Core/Src/usbh_ctlreq.c ****   cfg_desc->wTotalLength        = LE16(buf + 2);
 1244              		.loc 1 394 33 view .LVU468
 1245 0030 627F     		ldrb	r2, [r4, #29]	@ zero_extendqisi2
 393:./Libraries/STM32_USB_Host_Library/Core/Src/usbh_ctlreq.c ****   cfg_desc->bDescriptorType     = *(uint8_t *)(buf + 1);
 1246              		.loc 1 393 33 view .LVU469
 1247 0032 84F83834 		strb	r3, [r4, #1080]
 394:./Libraries/STM32_USB_Host_Library/Core/Src/usbh_ctlreq.c ****   cfg_desc->wTotalLength        = LE16(buf + 2);
 1248              		.loc 1 394 3 is_stmt 1 view .LVU470
 396:./Libraries/STM32_USB_Host_Library/Core/Src/usbh_ctlreq.c ****   cfg_desc->bConfigurationValue = *(uint8_t *)(buf + 5);
 1249              		.loc 1 396 33 is_stmt 0 view .LVU471
 1250 0036 94F82030 		ldrb	r3, [r4, #32]	@ zero_extendqisi2
 394:./Libraries/STM32_USB_Host_Library/Core/Src/usbh_ctlreq.c ****   cfg_desc->wTotalLength        = LE16(buf + 2);
 1251              		.loc 1 394 33 view .LVU472
 1252 003a 84F83924 		strb	r2, [r4, #1081]
 395:./Libraries/STM32_USB_Host_Library/Core/Src/usbh_ctlreq.c ****   cfg_desc->bNumInterfaces      = *(uint8_t *)(buf + 4);
 1253              		.loc 1 395 3 is_stmt 1 view .LVU473
 396:./Libraries/STM32_USB_Host_Library/Core/Src/usbh_ctlreq.c ****   cfg_desc->bConfigurationValue = *(uint8_t *)(buf + 5);
 1254              		.loc 1 396 33 is_stmt 0 view .LVU474
 1255 003e 84F83C34 		strb	r3, [r4, #1084]
 397:./Libraries/STM32_USB_Host_Library/Core/Src/usbh_ctlreq.c ****   cfg_desc->iConfiguration      = *(uint8_t *)(buf + 6);
 1256              		.loc 1 397 33 view .LVU475
 1257 0042 94F82120 		ldrb	r2, [r4, #33]	@ zero_extendqisi2
 398:./Libraries/STM32_USB_Host_Library/Core/Src/usbh_ctlreq.c ****   cfg_desc->bmAttributes        = *(uint8_t *)(buf + 7);
 1258              		.loc 1 398 33 view .LVU476
 1259 0046 94F82230 		ldrb	r3, [r4, #34]	@ zero_extendqisi2
 395:./Libraries/STM32_USB_Host_Library/Core/Src/usbh_ctlreq.c ****   cfg_desc->bNumInterfaces      = *(uint8_t *)(buf + 4);
 1260              		.loc 1 395 35 view .LVU477
 1261 004a E18B     		ldrh	r1, [r4, #30]	@ unaligned
 397:./Libraries/STM32_USB_Host_Library/Core/Src/usbh_ctlreq.c ****   cfg_desc->iConfiguration      = *(uint8_t *)(buf + 6);
 1262              		.loc 1 397 33 view .LVU478
 1263 004c 84F83D24 		strb	r2, [r4, #1085]
 398:./Libraries/STM32_USB_Host_Library/Core/Src/usbh_ctlreq.c ****   cfg_desc->bmAttributes        = *(uint8_t *)(buf + 7);
 1264              		.loc 1 398 33 view .LVU479
 1265 0050 84F83E34 		strb	r3, [r4, #1086]
 399:./Libraries/STM32_USB_Host_Library/Core/Src/usbh_ctlreq.c ****   cfg_desc->bMaxPower           = *(uint8_t *)(buf + 8);
 1266              		.loc 1 399 33 view .LVU480
 1267 0054 94F82320 		ldrb	r2, [r4, #35]	@ zero_extendqisi2
 400:./Libraries/STM32_USB_Host_Library/Core/Src/usbh_ctlreq.c **** 
 1268              		.loc 1 400 33 view .LVU481
 1269 0058 94F82430 		ldrb	r3, [r4, #36]	@ zero_extendqisi2
 395:./Libraries/STM32_USB_Host_Library/Core/Src/usbh_ctlreq.c ****   cfg_desc->bNumInterfaces      = *(uint8_t *)(buf + 4);
 1270              		.loc 1 395 33 view .LVU482
 1271 005c A4F83A14 		strh	r1, [r4, #1082]	@ movhi
 396:./Libraries/STM32_USB_Host_Library/Core/Src/usbh_ctlreq.c ****   cfg_desc->bConfigurationValue = *(uint8_t *)(buf + 5);
 1272              		.loc 1 396 3 is_stmt 1 view .LVU483
 397:./Libraries/STM32_USB_Host_Library/Core/Src/usbh_ctlreq.c ****   cfg_desc->iConfiguration      = *(uint8_t *)(buf + 6);
 1273              		.loc 1 397 3 view .LVU484
 398:./Libraries/STM32_USB_Host_Library/Core/Src/usbh_ctlreq.c ****   cfg_desc->bmAttributes        = *(uint8_t *)(buf + 7);
 1274              		.loc 1 398 3 view .LVU485
 399:./Libraries/STM32_USB_Host_Library/Core/Src/usbh_ctlreq.c ****   cfg_desc->bMaxPower           = *(uint8_t *)(buf + 8);
 1275              		.loc 1 399 3 view .LVU486
 399:./Libraries/STM32_USB_Host_Library/Core/Src/usbh_ctlreq.c ****   cfg_desc->bMaxPower           = *(uint8_t *)(buf + 8);
 1276              		.loc 1 399 33 is_stmt 0 view .LVU487
 1277 0060 84F83F24 		strb	r2, [r4, #1087]
 400:./Libraries/STM32_USB_Host_Library/Core/Src/usbh_ctlreq.c **** 
 1278              		.loc 1 400 3 is_stmt 1 view .LVU488
 400:./Libraries/STM32_USB_Host_Library/Core/Src/usbh_ctlreq.c **** 
ARM GAS  /tmp/ccOpRQ1g.s 			page 48


 1279              		.loc 1 400 33 is_stmt 0 view .LVU489
 1280 0064 84F84034 		strb	r3, [r4, #1088]
 402:./Libraries/STM32_USB_Host_Library/Core/Src/usbh_ctlreq.c ****   {
 1281              		.loc 1 402 3 is_stmt 1 view .LVU490
 402:./Libraries/STM32_USB_Host_Library/Core/Src/usbh_ctlreq.c ****   {
 1282              		.loc 1 402 6 is_stmt 0 view .LVU491
 1283 0068 DED9     		bls	.L82
 1284 006a 2646     		mov	r6, r4
 1285              	.LVL104:
 402:./Libraries/STM32_USB_Host_Library/Core/Src/usbh_ctlreq.c ****   {
 1286              		.loc 1 402 6 view .LVU492
 1287 006c 0746     		mov	r7, r0
 404:./Libraries/STM32_USB_Host_Library/Core/Src/usbh_ctlreq.c ****     pif = (USBH_InterfaceDescTypeDef *)0;
 1288              		.loc 1 404 9 view .LVU493
 1289 006e 0923     		movs	r3, #9
 1290              	.LBB88:
 1291              	.LBB89:
 466:./Libraries/STM32_USB_Host_Library/Core/Src/usbh_ctlreq.c ****   ep_descriptor->bDescriptorType  = *(uint8_t *)(buf + 1);
 1292              		.loc 1 466 35 view .LVU494
 1293 0070 4FF01A0C 		mov	ip, #26
 1294              	.LVL105:
 1295              	.L74:
 466:./Libraries/STM32_USB_Host_Library/Core/Src/usbh_ctlreq.c ****   ep_descriptor->bDescriptorType  = *(uint8_t *)(buf + 1);
 1296              		.loc 1 466 35 view .LVU495
 1297 0074 5FFA87FE 		uxtb	lr, r7
 1298 0078 BEF1010F 		cmp	lr, #1
 1299 007c 8CBF     		ite	hi
 1300 007e 4FF0000E 		movhi	lr, #0
 1301 0082 4FF0010E 		movls	lr, #1
 1302              	.L75:
 466:./Libraries/STM32_USB_Host_Library/Core/Src/usbh_ctlreq.c ****   ep_descriptor->bDescriptorType  = *(uint8_t *)(buf + 1);
 1303              		.loc 1 466 35 view .LVU496
 1304              	.LBE89:
 1305              	.LBE88:
 409:./Libraries/STM32_USB_Host_Library/Core/Src/usbh_ctlreq.c ****       if (pdesc->bDescriptorType   == USB_DESC_TYPE_INTERFACE)
 1306              		.loc 1 409 7 is_stmt 1 view .LVU497
 1307              	.LVL106:
 1308              	.LBB93:
 1309              	.LBI93:
 523:./Libraries/STM32_USB_Host_Library/Core/Src/usbh_ctlreq.c **** {
 1310              		.loc 1 523 21 view .LVU498
 1311              	.LBB94:
 525:./Libraries/STM32_USB_Host_Library/Core/Src/usbh_ctlreq.c **** 
 1312              		.loc 1 525 3 view .LVU499
 527:./Libraries/STM32_USB_Host_Library/Core/Src/usbh_ctlreq.c ****   pnext = (USBH_DescHeader_t *)(void *)((uint8_t *)(void *)pbuf + \
 1313              		.loc 1 527 3 view .LVU500
 527:./Libraries/STM32_USB_Host_Library/Core/Src/usbh_ctlreq.c ****   pnext = (USBH_DescHeader_t *)(void *)((uint8_t *)(void *)pbuf + \
 1314              		.loc 1 527 3 is_stmt 0 view .LVU501
 1315              	.LBE94:
 1316              	.LBE93:
 407:./Libraries/STM32_USB_Host_Library/Core/Src/usbh_ctlreq.c ****     {
 1317              		.loc 1 407 11 is_stmt 1 view .LVU502
 407:./Libraries/STM32_USB_Host_Library/Core/Src/usbh_ctlreq.c ****     {
 1318              		.loc 1 407 46 is_stmt 0 view .LVU503
 1319 0086 9942     		cmp	r1, r3
 1320 0088 CED9     		bls	.L82
 407:./Libraries/STM32_USB_Host_Library/Core/Src/usbh_ctlreq.c ****     {
ARM GAS  /tmp/ccOpRQ1g.s 			page 49


 1321              		.loc 1 407 46 view .LVU504
 1322 008a BEF1000F 		cmp	lr, #0
 1323 008e CBD0     		beq	.L82
 1324              	.LBB97:
 1325              	.LBB95:
 527:./Libraries/STM32_USB_Host_Library/Core/Src/usbh_ctlreq.c ****   pnext = (USBH_DescHeader_t *)(void *)((uint8_t *)(void *)pbuf + \
 1326              		.loc 1 527 46 view .LVU505
 1327 0090 2A78     		ldrb	r2, [r5]	@ zero_extendqisi2
 528:./Libraries/STM32_USB_Host_Library/Core/Src/usbh_ctlreq.c ****                                         ((USBH_DescHeader_t *)(void *)pbuf)->bLength);
 1328              		.loc 1 528 9 view .LVU506
 1329 0092 1544     		add	r5, r5, r2
 1330              	.LVL107:
 527:./Libraries/STM32_USB_Host_Library/Core/Src/usbh_ctlreq.c ****   pnext = (USBH_DescHeader_t *)(void *)((uint8_t *)(void *)pbuf + \
 1331              		.loc 1 527 8 view .LVU507
 1332 0094 1344     		add	r3, r3, r2
 1333              	.LVL108:
 527:./Libraries/STM32_USB_Host_Library/Core/Src/usbh_ctlreq.c ****   pnext = (USBH_DescHeader_t *)(void *)((uint8_t *)(void *)pbuf + \
 1334              		.loc 1 527 8 view .LVU508
 1335              	.LBE95:
 1336              	.LBE97:
 410:./Libraries/STM32_USB_Host_Library/Core/Src/usbh_ctlreq.c ****       {
 1337              		.loc 1 410 10 view .LVU509
 1338 0096 6A78     		ldrb	r2, [r5, #1]	@ zero_extendqisi2
 1339              	.LBB98:
 1340              	.LBB96:
 527:./Libraries/STM32_USB_Host_Library/Core/Src/usbh_ctlreq.c ****   pnext = (USBH_DescHeader_t *)(void *)((uint8_t *)(void *)pbuf + \
 1341              		.loc 1 527 8 view .LVU510
 1342 0098 9BB2     		uxth	r3, r3
 1343              	.LVL109:
 528:./Libraries/STM32_USB_Host_Library/Core/Src/usbh_ctlreq.c ****                                         ((USBH_DescHeader_t *)(void *)pbuf)->bLength);
 1344              		.loc 1 528 3 is_stmt 1 view .LVU511
 531:./Libraries/STM32_USB_Host_Library/Core/Src/usbh_ctlreq.c **** }
 1345              		.loc 1 531 3 view .LVU512
 531:./Libraries/STM32_USB_Host_Library/Core/Src/usbh_ctlreq.c **** }
 1346              		.loc 1 531 3 is_stmt 0 view .LVU513
 1347              	.LBE96:
 1348              	.LBE98:
 410:./Libraries/STM32_USB_Host_Library/Core/Src/usbh_ctlreq.c ****       {
 1349              		.loc 1 410 7 is_stmt 1 view .LVU514
 410:./Libraries/STM32_USB_Host_Library/Core/Src/usbh_ctlreq.c ****       {
 1350              		.loc 1 410 10 is_stmt 0 view .LVU515
 1351 009a 042A     		cmp	r2, #4
 1352 009c F3D1     		bne	.L75
 412:./Libraries/STM32_USB_Host_Library/Core/Src/usbh_ctlreq.c ****         USBH_ParseInterfaceDesc(pif, (uint8_t *)(void *)pdesc);
 1353              		.loc 1 412 9 is_stmt 1 view .LVU516
 1354              	.LVL110:
 413:./Libraries/STM32_USB_Host_Library/Core/Src/usbh_ctlreq.c **** 
 1355              		.loc 1 413 9 view .LVU517
 1356              	.LBB99:
 1357              	.LBI99:
 441:./Libraries/STM32_USB_Host_Library/Core/Src/usbh_ctlreq.c ****                                      uint8_t *buf)
 1358              		.loc 1 441 14 view .LVU518
 1359              	.LBB100:
 444:./Libraries/STM32_USB_Host_Library/Core/Src/usbh_ctlreq.c ****   if_descriptor->bDescriptorType    = *(uint8_t *)(buf + 1);
 1360              		.loc 1 444 3 view .LVU519
 444:./Libraries/STM32_USB_Host_Library/Core/Src/usbh_ctlreq.c ****   if_descriptor->bDescriptorType    = *(uint8_t *)(buf + 1);
 1361              		.loc 1 444 39 is_stmt 0 view .LVU520
ARM GAS  /tmp/ccOpRQ1g.s 			page 50


 1362 009e 2A78     		ldrb	r2, [r5]	@ zero_extendqisi2
 1363              	.LBE100:
 1364              	.LBE99:
 417:./Libraries/STM32_USB_Host_Library/Core/Src/usbh_ctlreq.c ****         {
 1365              		.loc 1 417 45 view .LVU521
 1366 00a0 9942     		cmp	r1, r3
 1367              	.LBB102:
 1368              	.LBB101:
 444:./Libraries/STM32_USB_Host_Library/Core/Src/usbh_ctlreq.c ****   if_descriptor->bDescriptorType    = *(uint8_t *)(buf + 1);
 1369              		.loc 1 444 37 view .LVU522
 1370 00a2 86F84224 		strb	r2, [r6, #1090]
 445:./Libraries/STM32_USB_Host_Library/Core/Src/usbh_ctlreq.c ****   if_descriptor->bInterfaceNumber   = *(uint8_t *)(buf + 2);
 1371              		.loc 1 445 3 is_stmt 1 view .LVU523
 445:./Libraries/STM32_USB_Host_Library/Core/Src/usbh_ctlreq.c ****   if_descriptor->bInterfaceNumber   = *(uint8_t *)(buf + 2);
 1372              		.loc 1 445 37 is_stmt 0 view .LVU524
 1373 00a6 6A78     		ldrb	r2, [r5, #1]	@ zero_extendqisi2
 1374 00a8 86F84324 		strb	r2, [r6, #1091]
 446:./Libraries/STM32_USB_Host_Library/Core/Src/usbh_ctlreq.c ****   if_descriptor->bAlternateSetting  = *(uint8_t *)(buf + 3);
 1375              		.loc 1 446 3 is_stmt 1 view .LVU525
 446:./Libraries/STM32_USB_Host_Library/Core/Src/usbh_ctlreq.c ****   if_descriptor->bAlternateSetting  = *(uint8_t *)(buf + 3);
 1376              		.loc 1 446 37 is_stmt 0 view .LVU526
 1377 00ac AA78     		ldrb	r2, [r5, #2]	@ zero_extendqisi2
 1378 00ae 86F84424 		strb	r2, [r6, #1092]
 447:./Libraries/STM32_USB_Host_Library/Core/Src/usbh_ctlreq.c ****   if_descriptor->bNumEndpoints      = *(uint8_t *)(buf + 4);
 1379              		.loc 1 447 3 is_stmt 1 view .LVU527
 447:./Libraries/STM32_USB_Host_Library/Core/Src/usbh_ctlreq.c ****   if_descriptor->bNumEndpoints      = *(uint8_t *)(buf + 4);
 1380              		.loc 1 447 37 is_stmt 0 view .LVU528
 1381 00b2 EA78     		ldrb	r2, [r5, #3]	@ zero_extendqisi2
 1382 00b4 86F84524 		strb	r2, [r6, #1093]
 448:./Libraries/STM32_USB_Host_Library/Core/Src/usbh_ctlreq.c ****   if_descriptor->bInterfaceClass    = *(uint8_t *)(buf + 5);
 1383              		.loc 1 448 3 is_stmt 1 view .LVU529
 448:./Libraries/STM32_USB_Host_Library/Core/Src/usbh_ctlreq.c ****   if_descriptor->bInterfaceClass    = *(uint8_t *)(buf + 5);
 1384              		.loc 1 448 37 is_stmt 0 view .LVU530
 1385 00b8 2A79     		ldrb	r2, [r5, #4]	@ zero_extendqisi2
 1386 00ba 86F84624 		strb	r2, [r6, #1094]
 449:./Libraries/STM32_USB_Host_Library/Core/Src/usbh_ctlreq.c ****   if_descriptor->bInterfaceSubClass = *(uint8_t *)(buf + 6);
 1387              		.loc 1 449 3 is_stmt 1 view .LVU531
 449:./Libraries/STM32_USB_Host_Library/Core/Src/usbh_ctlreq.c ****   if_descriptor->bInterfaceSubClass = *(uint8_t *)(buf + 6);
 1388              		.loc 1 449 37 is_stmt 0 view .LVU532
 1389 00be 95F805E0 		ldrb	lr, [r5, #5]	@ zero_extendqisi2
 1390 00c2 86F847E4 		strb	lr, [r6, #1095]
 450:./Libraries/STM32_USB_Host_Library/Core/Src/usbh_ctlreq.c ****   if_descriptor->bInterfaceProtocol = *(uint8_t *)(buf + 7);
 1391              		.loc 1 450 3 is_stmt 1 view .LVU533
 450:./Libraries/STM32_USB_Host_Library/Core/Src/usbh_ctlreq.c ****   if_descriptor->bInterfaceProtocol = *(uint8_t *)(buf + 7);
 1392              		.loc 1 450 37 is_stmt 0 view .LVU534
 1393 00c6 95F806E0 		ldrb	lr, [r5, #6]	@ zero_extendqisi2
 1394 00ca 86F848E4 		strb	lr, [r6, #1096]
 451:./Libraries/STM32_USB_Host_Library/Core/Src/usbh_ctlreq.c ****   if_descriptor->iInterface         = *(uint8_t *)(buf + 8);
 1395              		.loc 1 451 3 is_stmt 1 view .LVU535
 451:./Libraries/STM32_USB_Host_Library/Core/Src/usbh_ctlreq.c ****   if_descriptor->iInterface         = *(uint8_t *)(buf + 8);
 1396              		.loc 1 451 37 is_stmt 0 view .LVU536
 1397 00ce 95F807E0 		ldrb	lr, [r5, #7]	@ zero_extendqisi2
 1398 00d2 86F849E4 		strb	lr, [r6, #1097]
 452:./Libraries/STM32_USB_Host_Library/Core/Src/usbh_ctlreq.c **** }
 1399              		.loc 1 452 3 is_stmt 1 view .LVU537
 452:./Libraries/STM32_USB_Host_Library/Core/Src/usbh_ctlreq.c **** }
 1400              		.loc 1 452 37 is_stmt 0 view .LVU538
ARM GAS  /tmp/ccOpRQ1g.s 			page 51


 1401 00d6 95F808E0 		ldrb	lr, [r5, #8]	@ zero_extendqisi2
 1402 00da 86F84AE4 		strb	lr, [r6, #1098]
 1403              	.LVL111:
 452:./Libraries/STM32_USB_Host_Library/Core/Src/usbh_ctlreq.c **** }
 1404              		.loc 1 452 37 view .LVU539
 1405              	.LBE101:
 1406              	.LBE102:
 415:./Libraries/STM32_USB_Host_Library/Core/Src/usbh_ctlreq.c ****         pep = (USBH_EpDescTypeDef *)0;
 1407              		.loc 1 415 9 is_stmt 1 view .LVU540
 416:./Libraries/STM32_USB_Host_Library/Core/Src/usbh_ctlreq.c ****         while ((ep_ix < pif->bNumEndpoints) && (ptr < cfg_desc->wTotalLength))
 1408              		.loc 1 416 9 view .LVU541
 417:./Libraries/STM32_USB_Host_Library/Core/Src/usbh_ctlreq.c ****         {
 1409              		.loc 1 417 9 view .LVU542
 417:./Libraries/STM32_USB_Host_Library/Core/Src/usbh_ctlreq.c ****         {
 1410              		.loc 1 417 15 view .LVU543
 417:./Libraries/STM32_USB_Host_Library/Core/Src/usbh_ctlreq.c ****         {
 1411              		.loc 1 417 45 is_stmt 0 view .LVU544
 1412 00de 31D9     		bls	.L76
 1413 00e0 82B3     		cbz	r2, .L76
 415:./Libraries/STM32_USB_Host_Library/Core/Src/usbh_ctlreq.c ****         pep = (USBH_EpDescTypeDef *)0;
 1414              		.loc 1 415 15 view .LVU545
 1415 00e2 4FF0000E 		mov	lr, #0
 1416              	.LBB103:
 1417              	.LBB90:
 466:./Libraries/STM32_USB_Host_Library/Core/Src/usbh_ctlreq.c ****   ep_descriptor->bDescriptorType  = *(uint8_t *)(buf + 1);
 1418              		.loc 1 466 35 view .LVU546
 1419 00e6 0CFB07F8 		mul	r8, ip, r7
 1420 00ea 01E0     		b	.L78
 1421              	.LVL112:
 1422              	.L99:
 466:./Libraries/STM32_USB_Host_Library/Core/Src/usbh_ctlreq.c ****   ep_descriptor->bDescriptorType  = *(uint8_t *)(buf + 1);
 1423              		.loc 1 466 35 view .LVU547
 1424              	.LBE90:
 1425              	.LBE103:
 417:./Libraries/STM32_USB_Host_Library/Core/Src/usbh_ctlreq.c ****         {
 1426              		.loc 1 417 45 view .LVU548
 1427 00ec 9942     		cmp	r1, r3
 1428 00ee 29D9     		bls	.L76
 1429              	.LVL113:
 1430              	.L78:
 419:./Libraries/STM32_USB_Host_Library/Core/Src/usbh_ctlreq.c ****           if (pdesc->bDescriptorType   == USB_DESC_TYPE_ENDPOINT)
 1431              		.loc 1 419 11 is_stmt 1 view .LVU549
 1432              	.LBB104:
 1433              	.LBI104:
 523:./Libraries/STM32_USB_Host_Library/Core/Src/usbh_ctlreq.c **** {
 1434              		.loc 1 523 21 view .LVU550
 1435              	.LBB105:
 525:./Libraries/STM32_USB_Host_Library/Core/Src/usbh_ctlreq.c **** 
 1436              		.loc 1 525 3 view .LVU551
 527:./Libraries/STM32_USB_Host_Library/Core/Src/usbh_ctlreq.c ****   pnext = (USBH_DescHeader_t *)(void *)((uint8_t *)(void *)pbuf + \
 1437              		.loc 1 527 3 view .LVU552
 527:./Libraries/STM32_USB_Host_Library/Core/Src/usbh_ctlreq.c ****   pnext = (USBH_DescHeader_t *)(void *)((uint8_t *)(void *)pbuf + \
 1438              		.loc 1 527 46 is_stmt 0 view .LVU553
 1439 00f0 2A78     		ldrb	r2, [r5]	@ zero_extendqisi2
 528:./Libraries/STM32_USB_Host_Library/Core/Src/usbh_ctlreq.c ****                                         ((USBH_DescHeader_t *)(void *)pbuf)->bLength);
 1440              		.loc 1 528 9 view .LVU554
 1441 00f2 1544     		add	r5, r5, r2
ARM GAS  /tmp/ccOpRQ1g.s 			page 52


 1442              	.LVL114:
 527:./Libraries/STM32_USB_Host_Library/Core/Src/usbh_ctlreq.c ****   pnext = (USBH_DescHeader_t *)(void *)((uint8_t *)(void *)pbuf + \
 1443              		.loc 1 527 8 view .LVU555
 1444 00f4 1344     		add	r3, r3, r2
 1445              	.LVL115:
 527:./Libraries/STM32_USB_Host_Library/Core/Src/usbh_ctlreq.c ****   pnext = (USBH_DescHeader_t *)(void *)((uint8_t *)(void *)pbuf + \
 1446              		.loc 1 527 8 view .LVU556
 1447              	.LBE105:
 1448              	.LBE104:
 420:./Libraries/STM32_USB_Host_Library/Core/Src/usbh_ctlreq.c ****           {
 1449              		.loc 1 420 14 view .LVU557
 1450 00f6 6A78     		ldrb	r2, [r5, #1]	@ zero_extendqisi2
 1451              	.LBB107:
 1452              	.LBB106:
 527:./Libraries/STM32_USB_Host_Library/Core/Src/usbh_ctlreq.c ****   pnext = (USBH_DescHeader_t *)(void *)((uint8_t *)(void *)pbuf + \
 1453              		.loc 1 527 8 view .LVU558
 1454 00f8 9BB2     		uxth	r3, r3
 1455              	.LVL116:
 528:./Libraries/STM32_USB_Host_Library/Core/Src/usbh_ctlreq.c ****                                         ((USBH_DescHeader_t *)(void *)pbuf)->bLength);
 1456              		.loc 1 528 3 is_stmt 1 view .LVU559
 531:./Libraries/STM32_USB_Host_Library/Core/Src/usbh_ctlreq.c **** }
 1457              		.loc 1 531 3 view .LVU560
 531:./Libraries/STM32_USB_Host_Library/Core/Src/usbh_ctlreq.c **** }
 1458              		.loc 1 531 3 is_stmt 0 view .LVU561
 1459              	.LBE106:
 1460              	.LBE107:
 420:./Libraries/STM32_USB_Host_Library/Core/Src/usbh_ctlreq.c ****           {
 1461              		.loc 1 420 11 is_stmt 1 view .LVU562
 420:./Libraries/STM32_USB_Host_Library/Core/Src/usbh_ctlreq.c ****           {
 1462              		.loc 1 420 14 is_stmt 0 view .LVU563
 1463 00fa 052A     		cmp	r2, #5
 1464 00fc 1ED1     		bne	.L77
 422:./Libraries/STM32_USB_Host_Library/Core/Src/usbh_ctlreq.c ****             USBH_ParseEPDesc(pep, (uint8_t *)(void *)pdesc);
 1465              		.loc 1 422 13 is_stmt 1 view .LVU564
 423:./Libraries/STM32_USB_Host_Library/Core/Src/usbh_ctlreq.c ****             ep_ix++;
 1466              		.loc 1 423 13 view .LVU565
 1467              	.LVL117:
 1468              	.LBB108:
 1469              	.LBI88:
 463:./Libraries/STM32_USB_Host_Library/Core/Src/usbh_ctlreq.c ****                               uint8_t *buf)
 1470              		.loc 1 463 14 view .LVU566
 1471              	.LBB91:
 466:./Libraries/STM32_USB_Host_Library/Core/Src/usbh_ctlreq.c ****   ep_descriptor->bDescriptorType  = *(uint8_t *)(buf + 1);
 1472              		.loc 1 466 3 view .LVU567
 466:./Libraries/STM32_USB_Host_Library/Core/Src/usbh_ctlreq.c ****   ep_descriptor->bDescriptorType  = *(uint8_t *)(buf + 1);
 1473              		.loc 1 466 35 is_stmt 0 view .LVU568
 1474 00fe 0EF1010E 		add	lr, lr, #1
 1475              	.LVL118:
 466:./Libraries/STM32_USB_Host_Library/Core/Src/usbh_ctlreq.c ****   ep_descriptor->bDescriptorType  = *(uint8_t *)(buf + 1);
 1476              		.loc 1 466 37 view .LVU569
 1477 0102 95F80090 		ldrb	r9, [r5]	@ zero_extendqisi2
 466:./Libraries/STM32_USB_Host_Library/Core/Src/usbh_ctlreq.c ****   ep_descriptor->bDescriptorType  = *(uint8_t *)(buf + 1);
 1478              		.loc 1 466 35 view .LVU570
 1479 0106 08EBCE02 		add	r2, r8, lr, lsl #3
 1480              	.LBE91:
 1481              	.LBE108:
 424:./Libraries/STM32_USB_Host_Library/Core/Src/usbh_ctlreq.c ****           }
ARM GAS  /tmp/ccOpRQ1g.s 			page 53


 1482              		.loc 1 424 18 view .LVU571
 1483 010a 5FFA8EFE 		uxtb	lr, lr
 1484              	.LBB109:
 1485              	.LBB92:
 466:./Libraries/STM32_USB_Host_Library/Core/Src/usbh_ctlreq.c ****   ep_descriptor->bDescriptorType  = *(uint8_t *)(buf + 1);
 1486              		.loc 1 466 35 view .LVU572
 1487 010e 2244     		add	r2, r2, r4
 1488 0110 82F84494 		strb	r9, [r2, #1092]
 467:./Libraries/STM32_USB_Host_Library/Core/Src/usbh_ctlreq.c ****   ep_descriptor->bEndpointAddress = *(uint8_t *)(buf + 2);
 1489              		.loc 1 467 3 is_stmt 1 view .LVU573
 467:./Libraries/STM32_USB_Host_Library/Core/Src/usbh_ctlreq.c ****   ep_descriptor->bEndpointAddress = *(uint8_t *)(buf + 2);
 1490              		.loc 1 467 35 is_stmt 0 view .LVU574
 1491 0114 95F80190 		ldrb	r9, [r5, #1]	@ zero_extendqisi2
 1492 0118 82F84594 		strb	r9, [r2, #1093]
 468:./Libraries/STM32_USB_Host_Library/Core/Src/usbh_ctlreq.c ****   ep_descriptor->bmAttributes     = *(uint8_t *)(buf + 3);
 1493              		.loc 1 468 3 is_stmt 1 view .LVU575
 468:./Libraries/STM32_USB_Host_Library/Core/Src/usbh_ctlreq.c ****   ep_descriptor->bmAttributes     = *(uint8_t *)(buf + 3);
 1494              		.loc 1 468 35 is_stmt 0 view .LVU576
 1495 011c 95F80290 		ldrb	r9, [r5, #2]	@ zero_extendqisi2
 1496 0120 82F84694 		strb	r9, [r2, #1094]
 469:./Libraries/STM32_USB_Host_Library/Core/Src/usbh_ctlreq.c ****   ep_descriptor->wMaxPacketSize   = LE16(buf + 4);
 1497              		.loc 1 469 3 is_stmt 1 view .LVU577
 469:./Libraries/STM32_USB_Host_Library/Core/Src/usbh_ctlreq.c ****   ep_descriptor->wMaxPacketSize   = LE16(buf + 4);
 1498              		.loc 1 469 35 is_stmt 0 view .LVU578
 1499 0124 95F80390 		ldrb	r9, [r5, #3]	@ zero_extendqisi2
 1500 0128 82F84794 		strb	r9, [r2, #1095]
 470:./Libraries/STM32_USB_Host_Library/Core/Src/usbh_ctlreq.c ****   ep_descriptor->bInterval        = *(uint8_t *)(buf + 6);
 1501              		.loc 1 470 3 is_stmt 1 view .LVU579
 470:./Libraries/STM32_USB_Host_Library/Core/Src/usbh_ctlreq.c ****   ep_descriptor->bInterval        = *(uint8_t *)(buf + 6);
 1502              		.loc 1 470 37 is_stmt 0 view .LVU580
 1503 012c B5F80490 		ldrh	r9, [r5, #4]	@ unaligned
 470:./Libraries/STM32_USB_Host_Library/Core/Src/usbh_ctlreq.c ****   ep_descriptor->bInterval        = *(uint8_t *)(buf + 6);
 1504              		.loc 1 470 35 view .LVU581
 1505 0130 A2F84894 		strh	r9, [r2, #1096]	@ movhi
 471:./Libraries/STM32_USB_Host_Library/Core/Src/usbh_ctlreq.c **** }
 1506              		.loc 1 471 3 is_stmt 1 view .LVU582
 471:./Libraries/STM32_USB_Host_Library/Core/Src/usbh_ctlreq.c **** }
 1507              		.loc 1 471 35 is_stmt 0 view .LVU583
 1508 0134 95F80690 		ldrb	r9, [r5, #6]	@ zero_extendqisi2
 1509 0138 82F84A94 		strb	r9, [r2, #1098]
 1510              	.LVL119:
 471:./Libraries/STM32_USB_Host_Library/Core/Src/usbh_ctlreq.c **** }
 1511              		.loc 1 471 35 view .LVU584
 1512              	.LBE92:
 1513              	.LBE109:
 424:./Libraries/STM32_USB_Host_Library/Core/Src/usbh_ctlreq.c ****           }
 1514              		.loc 1 424 13 is_stmt 1 view .LVU585
 1515              	.L77:
 417:./Libraries/STM32_USB_Host_Library/Core/Src/usbh_ctlreq.c ****         {
 1516              		.loc 1 417 15 view .LVU586
 1517 013c 96F84624 		ldrb	r2, [r6, #1094]	@ zero_extendqisi2
 417:./Libraries/STM32_USB_Host_Library/Core/Src/usbh_ctlreq.c ****         {
 1518              		.loc 1 417 45 is_stmt 0 view .LVU587
 1519 0140 7245     		cmp	r2, lr
 1520 0142 D3D8     		bhi	.L99
 1521              	.LVL120:
 1522              	.L76:
ARM GAS  /tmp/ccOpRQ1g.s 			page 54


 427:./Libraries/STM32_USB_Host_Library/Core/Src/usbh_ctlreq.c ****       }
 1523              		.loc 1 427 9 is_stmt 1 view .LVU588
 427:./Libraries/STM32_USB_Host_Library/Core/Src/usbh_ctlreq.c ****       }
 1524              		.loc 1 427 9 is_stmt 0 view .LVU589
 1525 0144 0137     		adds	r7, r7, #1
 1526              	.LVL121:
 427:./Libraries/STM32_USB_Host_Library/Core/Src/usbh_ctlreq.c ****       }
 1527              		.loc 1 427 9 view .LVU590
 1528 0146 1A36     		adds	r6, r6, #26
 1529 0148 94E7     		b	.L74
 1530              	.L101:
 1531 014a 00BF     		.align	2
 1532              	.L100:
 1533 014c 80060002 		.word	33556096
 1534              	.LBE87:
 1535              	.LBE86:
 1536              		.cfi_endproc
 1537              	.LFE339:
 1539              		.section	.text.USBH_Get_StringDesc,"ax",%progbits
 1540              		.align	1
 1541              		.p2align 2,,3
 1542              		.global	USBH_Get_StringDesc
 1543              		.syntax unified
 1544              		.thumb
 1545              		.thumb_func
 1546              		.fpu fpv5-d16
 1548              	USBH_Get_StringDesc:
 1549              	.LVL122:
 1550              	.LFB340:
 161:./Libraries/STM32_USB_Host_Library/Core/Src/usbh_ctlreq.c ****   USBH_StatusTypeDef status;
 1551              		.loc 1 161 1 is_stmt 1 view -0
 1552              		.cfi_startproc
 1553              		@ args = 0, pretend = 0, frame = 0
 1554              		@ frame_needed = 0, uses_anonymous_args = 0
 162:./Libraries/STM32_USB_Host_Library/Core/Src/usbh_ctlreq.c **** 
 1555              		.loc 1 162 3 view .LVU592
 164:./Libraries/STM32_USB_Host_Library/Core/Src/usbh_ctlreq.c ****                                    USB_REQ_RECIPIENT_DEVICE | USB_REQ_TYPE_STANDARD,
 1556              		.loc 1 164 3 view .LVU593
 161:./Libraries/STM32_USB_Host_Library/Core/Src/usbh_ctlreq.c ****   USBH_StatusTypeDef status;
 1557              		.loc 1 161 1 is_stmt 0 view .LVU594
 1558 0000 F8B5     		push	{r3, r4, r5, r6, r7, lr}
 1559              	.LCFI12:
 1560              		.cfi_def_cfa_offset 24
 1561              		.cfi_offset 3, -24
 1562              		.cfi_offset 4, -20
 1563              		.cfi_offset 5, -16
 1564              		.cfi_offset 6, -12
 1565              		.cfi_offset 7, -8
 1566              		.cfi_offset 14, -4
 161:./Libraries/STM32_USB_Host_Library/Core/Src/usbh_ctlreq.c ****   USBH_StatusTypeDef status;
 1567              		.loc 1 161 1 view .LVU595
 1568 0002 1F46     		mov	r7, r3
 1569              	.LBB110:
 1570              	.LBB111:
 194:./Libraries/STM32_USB_Host_Library/Core/Src/usbh_ctlreq.c ****   {
 1571              		.loc 1 194 6 view .LVU596
 1572 0004 8378     		ldrb	r3, [r0, #2]	@ zero_extendqisi2
ARM GAS  /tmp/ccOpRQ1g.s 			page 55


 1573              	.LVL123:
 194:./Libraries/STM32_USB_Host_Library/Core/Src/usbh_ctlreq.c ****   {
 1574              		.loc 1 194 6 view .LVU597
 1575              	.LBE111:
 1576              	.LBE110:
 161:./Libraries/STM32_USB_Host_Library/Core/Src/usbh_ctlreq.c ****   USBH_StatusTypeDef status;
 1577              		.loc 1 161 1 view .LVU598
 1578 0006 0446     		mov	r4, r0
 1579 0008 1546     		mov	r5, r2
 1580              	.LBB115:
 1581              	.LBB112:
 194:./Libraries/STM32_USB_Host_Library/Core/Src/usbh_ctlreq.c ****   {
 1582              		.loc 1 194 6 view .LVU599
 1583 000a 012B     		cmp	r3, #1
 1584              	.LBE112:
 1585              	.LBE115:
 167:./Libraries/STM32_USB_Host_Library/Core/Src/usbh_ctlreq.c ****   {
 1586              		.loc 1 167 49 view .LVU600
 1587 000c 00F50776 		add	r6, r0, #540
 1588              	.LVL124:
 1589              	.LBB116:
 1590              	.LBI110:
 188:./Libraries/STM32_USB_Host_Library/Core/Src/usbh_ctlreq.c ****                                       uint8_t  req_type,
 1591              		.loc 1 188 20 is_stmt 1 view .LVU601
 1592              	.LBB113:
 194:./Libraries/STM32_USB_Host_Library/Core/Src/usbh_ctlreq.c ****   {
 1593              		.loc 1 194 3 view .LVU602
 194:./Libraries/STM32_USB_Host_Library/Core/Src/usbh_ctlreq.c ****   {
 1594              		.loc 1 194 6 is_stmt 0 view .LVU603
 1595 0010 09D1     		bne	.L103
 196:./Libraries/STM32_USB_Host_Library/Core/Src/usbh_ctlreq.c ****     phost->Control.setup.b.bRequest = USB_REQ_GET_DESCRIPTOR;
 1596              		.loc 1 196 5 is_stmt 1 view .LVU604
 197:./Libraries/STM32_USB_Host_Library/Core/Src/usbh_ctlreq.c ****     phost->Control.setup.b.wValue.w = value_idx;
 1597              		.loc 1 197 5 view .LVU605
 1598              	.LBE113:
 1599              	.LBE116:
 164:./Libraries/STM32_USB_Host_Library/Core/Src/usbh_ctlreq.c ****                                    USB_REQ_RECIPIENT_DEVICE | USB_REQ_TYPE_STANDARD,
 1600              		.loc 1 164 17 is_stmt 0 view .LVU606
 1601 0012 41F44070 		orr	r0, r1, #768
 1602              	.LVL125:
 1603              	.LBB117:
 1604              	.LBB114:
 196:./Libraries/STM32_USB_Host_Library/Core/Src/usbh_ctlreq.c ****     phost->Control.setup.b.bRequest = USB_REQ_GET_DESCRIPTOR;
 1605              		.loc 1 196 42 view .LVU607
 1606 0016 4FF4D062 		mov	r2, #1664
 1607              	.LVL126:
 202:./Libraries/STM32_USB_Host_Library/Core/Src/usbh_ctlreq.c ****     }
 1608              		.loc 1 202 39 view .LVU608
 1609 001a 40F20943 		movw	r3, #1033
 208:./Libraries/STM32_USB_Host_Library/Core/Src/usbh_ctlreq.c ****   }
 1610              		.loc 1 208 38 view .LVU609
 1611 001e E782     		strh	r7, [r4, #22]	@ movhi
 198:./Libraries/STM32_USB_Host_Library/Core/Src/usbh_ctlreq.c **** 
 1612              		.loc 1 198 37 view .LVU610
 1613 0020 6082     		strh	r0, [r4, #18]	@ movhi
 196:./Libraries/STM32_USB_Host_Library/Core/Src/usbh_ctlreq.c ****     phost->Control.setup.b.bRequest = USB_REQ_GET_DESCRIPTOR;
 1614              		.loc 1 196 42 view .LVU611
ARM GAS  /tmp/ccOpRQ1g.s 			page 56


 1615 0022 2282     		strh	r2, [r4, #16]	@ movhi
 198:./Libraries/STM32_USB_Host_Library/Core/Src/usbh_ctlreq.c **** 
 1616              		.loc 1 198 5 is_stmt 1 view .LVU612
 200:./Libraries/STM32_USB_Host_Library/Core/Src/usbh_ctlreq.c ****     {
 1617              		.loc 1 200 5 view .LVU613
 202:./Libraries/STM32_USB_Host_Library/Core/Src/usbh_ctlreq.c ****     }
 1618              		.loc 1 202 7 view .LVU614
 202:./Libraries/STM32_USB_Host_Library/Core/Src/usbh_ctlreq.c ****     }
 1619              		.loc 1 202 39 is_stmt 0 view .LVU615
 1620 0024 A382     		strh	r3, [r4, #20]	@ movhi
 208:./Libraries/STM32_USB_Host_Library/Core/Src/usbh_ctlreq.c ****   }
 1621              		.loc 1 208 5 is_stmt 1 view .LVU616
 1622              	.L103:
 211:./Libraries/STM32_USB_Host_Library/Core/Src/usbh_ctlreq.c **** }
 1623              		.loc 1 211 3 view .LVU617
 211:./Libraries/STM32_USB_Host_Library/Core/Src/usbh_ctlreq.c **** }
 1624              		.loc 1 211 10 is_stmt 0 view .LVU618
 1625 0026 3A46     		mov	r2, r7
 1626 0028 3146     		mov	r1, r6
 1627              	.LVL127:
 211:./Libraries/STM32_USB_Host_Library/Core/Src/usbh_ctlreq.c **** }
 1628              		.loc 1 211 10 view .LVU619
 1629 002a 2046     		mov	r0, r4
 1630 002c FFF7FEFF 		bl	USBH_CtlReq
 1631              	.LVL128:
 211:./Libraries/STM32_USB_Host_Library/Core/Src/usbh_ctlreq.c **** }
 1632              		.loc 1 211 10 view .LVU620
 1633              	.LBE114:
 1634              	.LBE117:
 164:./Libraries/STM32_USB_Host_Library/Core/Src/usbh_ctlreq.c ****                                    USB_REQ_RECIPIENT_DEVICE | USB_REQ_TYPE_STANDARD,
 1635              		.loc 1 164 6 view .LVU621
 1636 0030 18B9     		cbnz	r0, .L104
 170:./Libraries/STM32_USB_Host_Library/Core/Src/usbh_ctlreq.c ****   }
 1637              		.loc 1 170 5 is_stmt 1 view .LVU622
 1638              	.LVL129:
 1639              	.LBB118:
 1640              	.LBI118:
 483:./Libraries/STM32_USB_Host_Library/Core/Src/usbh_ctlreq.c **** {
 1641              		.loc 1 483 13 view .LVU623
 1642              	.LBB119:
 485:./Libraries/STM32_USB_Host_Library/Core/Src/usbh_ctlreq.c ****   uint16_t idx;
 1643              		.loc 1 485 3 view .LVU624
 486:./Libraries/STM32_USB_Host_Library/Core/Src/usbh_ctlreq.c **** 
 1644              		.loc 1 486 3 view .LVU625
 495:./Libraries/STM32_USB_Host_Library/Core/Src/usbh_ctlreq.c ****   {
 1645              		.loc 1 495 3 view .LVU626
 495:./Libraries/STM32_USB_Host_Library/Core/Src/usbh_ctlreq.c ****   {
 1646              		.loc 1 495 6 is_stmt 0 view .LVU627
 1647 0032 94F81D32 		ldrb	r3, [r4, #541]	@ zero_extendqisi2
 1648 0036 032B     		cmp	r3, #3
 1649 0038 00D0     		beq	.L112
 1650              	.LVL130:
 1651              	.L104:
 495:./Libraries/STM32_USB_Host_Library/Core/Src/usbh_ctlreq.c ****   {
 1652              		.loc 1 495 6 view .LVU628
 1653              	.LBE119:
 1654              	.LBE118:
ARM GAS  /tmp/ccOpRQ1g.s 			page 57


 173:./Libraries/STM32_USB_Host_Library/Core/Src/usbh_ctlreq.c **** }
 1655              		.loc 1 173 3 is_stmt 1 view .LVU629
 174:./Libraries/STM32_USB_Host_Library/Core/Src/usbh_ctlreq.c **** 
 1656              		.loc 1 174 1 is_stmt 0 view .LVU630
 1657 003a F8BD     		pop	{r3, r4, r5, r6, r7, pc}
 1658              	.LVL131:
 1659              	.L112:
 1660              	.LBB121:
 1661              	.LBB120:
 500:./Libraries/STM32_USB_Host_Library/Core/Src/usbh_ctlreq.c **** 
 1662              		.loc 1 500 5 is_stmt 1 view .LVU631
 500:./Libraries/STM32_USB_Host_Library/Core/Src/usbh_ctlreq.c **** 
 1663              		.loc 1 500 20 is_stmt 0 view .LVU632
 1664 003c 94F81C22 		ldrb	r2, [r4, #540]	@ zero_extendqisi2
 500:./Libraries/STM32_USB_Host_Library/Core/Src/usbh_ctlreq.c **** 
 1665              		.loc 1 500 38 view .LVU633
 1666 0040 023A     		subs	r2, r2, #2
 500:./Libraries/STM32_USB_Host_Library/Core/Src/usbh_ctlreq.c **** 
 1667              		.loc 1 500 82 view .LVU634
 1668 0042 9742     		cmp	r7, r2
 1669 0044 28BF     		it	cs
 1670 0046 1746     		movcs	r7, r2
 1671              	.LVL132:
 500:./Libraries/STM32_USB_Host_Library/Core/Src/usbh_ctlreq.c **** 
 1672              		.loc 1 500 15 view .LVU635
 1673 0048 B9B2     		uxth	r1, r7
 1674              	.LVL133:
 503:./Libraries/STM32_USB_Host_Library/Core/Src/usbh_ctlreq.c **** 
 1675              		.loc 1 503 5 is_stmt 1 view .LVU636
 505:./Libraries/STM32_USB_Host_Library/Core/Src/usbh_ctlreq.c ****     {
 1676              		.loc 1 505 5 view .LVU637
 505:./Libraries/STM32_USB_Host_Library/Core/Src/usbh_ctlreq.c ****     {
 1677              		.loc 1 505 20 view .LVU638
 505:./Libraries/STM32_USB_Host_Library/Core/Src/usbh_ctlreq.c ****     {
 1678              		.loc 1 505 5 is_stmt 0 view .LVU639
 1679 004a 47B1     		cbz	r7, .L105
 505:./Libraries/STM32_USB_Host_Library/Core/Src/usbh_ctlreq.c ****     {
 1680              		.loc 1 505 14 view .LVU640
 1681 004c 0346     		mov	r3, r0
 1682              	.LVL134:
 1683              	.L106:
 508:./Libraries/STM32_USB_Host_Library/Core/Src/usbh_ctlreq.c ****       pdest++;
 1684              		.loc 1 508 7 is_stmt 1 view .LVU641
 508:./Libraries/STM32_USB_Host_Library/Core/Src/usbh_ctlreq.c ****       pdest++;
 1685              		.loc 1 508 21 is_stmt 0 view .LVU642
 1686 004e F218     		adds	r2, r6, r3
 505:./Libraries/STM32_USB_Host_Library/Core/Src/usbh_ctlreq.c ****     {
 1687              		.loc 1 505 41 view .LVU643
 1688 0050 0233     		adds	r3, r3, #2
 1689              	.LVL135:
 505:./Libraries/STM32_USB_Host_Library/Core/Src/usbh_ctlreq.c ****     {
 1690              		.loc 1 505 41 view .LVU644
 1691 0052 9BB2     		uxth	r3, r3
 508:./Libraries/STM32_USB_Host_Library/Core/Src/usbh_ctlreq.c ****       pdest++;
 1692              		.loc 1 508 21 view .LVU645
 1693 0054 9278     		ldrb	r2, [r2, #2]	@ zero_extendqisi2
 505:./Libraries/STM32_USB_Host_Library/Core/Src/usbh_ctlreq.c ****     {
ARM GAS  /tmp/ccOpRQ1g.s 			page 58


 1694              		.loc 1 505 5 view .LVU646
 1695 0056 9942     		cmp	r1, r3
 508:./Libraries/STM32_USB_Host_Library/Core/Src/usbh_ctlreq.c ****       pdest++;
 1696              		.loc 1 508 14 view .LVU647
 1697 0058 05F8012B 		strb	r2, [r5], #1
 1698              	.LVL136:
 509:./Libraries/STM32_USB_Host_Library/Core/Src/usbh_ctlreq.c ****     }
 1699              		.loc 1 509 7 is_stmt 1 view .LVU648
 505:./Libraries/STM32_USB_Host_Library/Core/Src/usbh_ctlreq.c ****     {
 1700              		.loc 1 505 37 view .LVU649
 505:./Libraries/STM32_USB_Host_Library/Core/Src/usbh_ctlreq.c ****     {
 1701              		.loc 1 505 20 view .LVU650
 505:./Libraries/STM32_USB_Host_Library/Core/Src/usbh_ctlreq.c ****     {
 1702              		.loc 1 505 5 is_stmt 0 view .LVU651
 1703 005c F7D8     		bhi	.L106
 1704              	.LVL137:
 1705              	.L105:
 511:./Libraries/STM32_USB_Host_Library/Core/Src/usbh_ctlreq.c ****   }
 1706              		.loc 1 511 5 is_stmt 1 view .LVU652
 511:./Libraries/STM32_USB_Host_Library/Core/Src/usbh_ctlreq.c ****   }
 1707              		.loc 1 511 12 is_stmt 0 view .LVU653
 1708 005e 0023     		movs	r3, #0
 1709 0060 2B70     		strb	r3, [r5]
 1710              	.LVL138:
 511:./Libraries/STM32_USB_Host_Library/Core/Src/usbh_ctlreq.c ****   }
 1711              		.loc 1 511 12 view .LVU654
 1712              	.LBE120:
 1713              	.LBE121:
 173:./Libraries/STM32_USB_Host_Library/Core/Src/usbh_ctlreq.c **** }
 1714              		.loc 1 173 3 is_stmt 1 view .LVU655
 174:./Libraries/STM32_USB_Host_Library/Core/Src/usbh_ctlreq.c **** 
 1715              		.loc 1 174 1 is_stmt 0 view .LVU656
 1716 0062 F8BD     		pop	{r3, r4, r5, r6, r7, pc}
 174:./Libraries/STM32_USB_Host_Library/Core/Src/usbh_ctlreq.c **** 
 1717              		.loc 1 174 1 view .LVU657
 1718              		.cfi_endproc
 1719              	.LFE340:
 1721              		.section	.text.USBH_SetAddress,"ax",%progbits
 1722              		.align	1
 1723              		.p2align 2,,3
 1724              		.global	USBH_SetAddress
 1725              		.syntax unified
 1726              		.thumb
 1727              		.thumb_func
 1728              		.fpu fpv5-d16
 1730              	USBH_SetAddress:
 1731              	.LVL139:
 1732              	.LFB342:
 224:./Libraries/STM32_USB_Host_Library/Core/Src/usbh_ctlreq.c ****   if (phost->RequestState == CMD_SEND)
 1733              		.loc 1 224 1 is_stmt 1 view -0
 1734              		.cfi_startproc
 1735              		@ args = 0, pretend = 0, frame = 0
 1736              		@ frame_needed = 0, uses_anonymous_args = 0
 1737              		@ link register save eliminated.
 225:./Libraries/STM32_USB_Host_Library/Core/Src/usbh_ctlreq.c ****   {
 1738              		.loc 1 225 3 view .LVU659
 225:./Libraries/STM32_USB_Host_Library/Core/Src/usbh_ctlreq.c ****   {
ARM GAS  /tmp/ccOpRQ1g.s 			page 59


 1739              		.loc 1 225 6 is_stmt 0 view .LVU660
 1740 0000 8378     		ldrb	r3, [r0, #2]	@ zero_extendqisi2
 1741 0002 012B     		cmp	r3, #1
 1742 0004 05D1     		bne	.L114
 227:./Libraries/STM32_USB_Host_Library/Core/Src/usbh_ctlreq.c ****                                            USB_REQ_TYPE_STANDARD;
 1743              		.loc 1 227 5 is_stmt 1 view .LVU661
 230:./Libraries/STM32_USB_Host_Library/Core/Src/usbh_ctlreq.c **** 
 1744              		.loc 1 230 5 view .LVU662
 227:./Libraries/STM32_USB_Host_Library/Core/Src/usbh_ctlreq.c ****                                            USB_REQ_TYPE_STANDARD;
 1745              		.loc 1 227 42 is_stmt 0 view .LVU663
 1746 0006 4FF4A062 		mov	r2, #1280
 233:./Libraries/STM32_USB_Host_Library/Core/Src/usbh_ctlreq.c ****     phost->Control.setup.b.wLength.w = 0U;
 1747              		.loc 1 233 37 view .LVU664
 1748 000a 0023     		movs	r3, #0
 232:./Libraries/STM32_USB_Host_Library/Core/Src/usbh_ctlreq.c ****     phost->Control.setup.b.wIndex.w = 0U;
 1749              		.loc 1 232 39 view .LVU665
 1750 000c 4182     		strh	r1, [r0, #18]	@ movhi
 227:./Libraries/STM32_USB_Host_Library/Core/Src/usbh_ctlreq.c ****                                            USB_REQ_TYPE_STANDARD;
 1751              		.loc 1 227 42 view .LVU666
 1752 000e 0282     		strh	r2, [r0, #16]	@ movhi
 232:./Libraries/STM32_USB_Host_Library/Core/Src/usbh_ctlreq.c ****     phost->Control.setup.b.wIndex.w = 0U;
 1753              		.loc 1 232 5 is_stmt 1 view .LVU667
 233:./Libraries/STM32_USB_Host_Library/Core/Src/usbh_ctlreq.c ****     phost->Control.setup.b.wLength.w = 0U;
 1754              		.loc 1 233 5 view .LVU668
 234:./Libraries/STM32_USB_Host_Library/Core/Src/usbh_ctlreq.c ****   }
 1755              		.loc 1 234 5 view .LVU669
 233:./Libraries/STM32_USB_Host_Library/Core/Src/usbh_ctlreq.c ****     phost->Control.setup.b.wLength.w = 0U;
 1756              		.loc 1 233 37 is_stmt 0 view .LVU670
 1757 0010 4361     		str	r3, [r0, #20]
 1758              	.L114:
 237:./Libraries/STM32_USB_Host_Library/Core/Src/usbh_ctlreq.c **** }
 1759              		.loc 1 237 3 is_stmt 1 view .LVU671
 237:./Libraries/STM32_USB_Host_Library/Core/Src/usbh_ctlreq.c **** }
 1760              		.loc 1 237 10 is_stmt 0 view .LVU672
 1761 0012 0022     		movs	r2, #0
 1762 0014 1146     		mov	r1, r2
 1763              	.LVL140:
 237:./Libraries/STM32_USB_Host_Library/Core/Src/usbh_ctlreq.c **** }
 1764              		.loc 1 237 10 view .LVU673
 1765 0016 FFF7FEBF 		b	USBH_CtlReq
 1766              	.LVL141:
 237:./Libraries/STM32_USB_Host_Library/Core/Src/usbh_ctlreq.c **** }
 1767              		.loc 1 237 10 view .LVU674
 1768              		.cfi_endproc
 1769              	.LFE342:
 1771 001a 00BF     		.section	.text.USBH_SetCfg,"ax",%progbits
 1772              		.align	1
 1773              		.p2align 2,,3
 1774              		.global	USBH_SetCfg
 1775              		.syntax unified
 1776              		.thumb
 1777              		.thumb_func
 1778              		.fpu fpv5-d16
 1780              	USBH_SetCfg:
 1781              	.LVL142:
 1782              	.LFB343:
 249:./Libraries/STM32_USB_Host_Library/Core/Src/usbh_ctlreq.c ****   if (phost->RequestState == CMD_SEND)
ARM GAS  /tmp/ccOpRQ1g.s 			page 60


 1783              		.loc 1 249 1 is_stmt 1 view -0
 1784              		.cfi_startproc
 1785              		@ args = 0, pretend = 0, frame = 0
 1786              		@ frame_needed = 0, uses_anonymous_args = 0
 1787              		@ link register save eliminated.
 250:./Libraries/STM32_USB_Host_Library/Core/Src/usbh_ctlreq.c ****   {
 1788              		.loc 1 250 3 view .LVU676
 250:./Libraries/STM32_USB_Host_Library/Core/Src/usbh_ctlreq.c ****   {
 1789              		.loc 1 250 6 is_stmt 0 view .LVU677
 1790 0000 8378     		ldrb	r3, [r0, #2]	@ zero_extendqisi2
 1791 0002 012B     		cmp	r3, #1
 1792 0004 05D1     		bne	.L116
 252:./Libraries/STM32_USB_Host_Library/Core/Src/usbh_ctlreq.c ****                                            | USB_REQ_TYPE_STANDARD;
 1793              		.loc 1 252 5 is_stmt 1 view .LVU678
 255:./Libraries/STM32_USB_Host_Library/Core/Src/usbh_ctlreq.c ****     phost->Control.setup.b.wValue.w = cfg_idx;
 1794              		.loc 1 255 5 view .LVU679
 252:./Libraries/STM32_USB_Host_Library/Core/Src/usbh_ctlreq.c ****                                            | USB_REQ_TYPE_STANDARD;
 1795              		.loc 1 252 42 is_stmt 0 view .LVU680
 1796 0006 4FF41062 		mov	r2, #2304
 257:./Libraries/STM32_USB_Host_Library/Core/Src/usbh_ctlreq.c ****     phost->Control.setup.b.wLength.w = 0U;
 1797              		.loc 1 257 37 view .LVU681
 1798 000a 0023     		movs	r3, #0
 256:./Libraries/STM32_USB_Host_Library/Core/Src/usbh_ctlreq.c ****     phost->Control.setup.b.wIndex.w = 0U;
 1799              		.loc 1 256 37 view .LVU682
 1800 000c 4182     		strh	r1, [r0, #18]	@ movhi
 252:./Libraries/STM32_USB_Host_Library/Core/Src/usbh_ctlreq.c ****                                            | USB_REQ_TYPE_STANDARD;
 1801              		.loc 1 252 42 view .LVU683
 1802 000e 0282     		strh	r2, [r0, #16]	@ movhi
 256:./Libraries/STM32_USB_Host_Library/Core/Src/usbh_ctlreq.c ****     phost->Control.setup.b.wIndex.w = 0U;
 1803              		.loc 1 256 5 is_stmt 1 view .LVU684
 257:./Libraries/STM32_USB_Host_Library/Core/Src/usbh_ctlreq.c ****     phost->Control.setup.b.wLength.w = 0U;
 1804              		.loc 1 257 5 view .LVU685
 258:./Libraries/STM32_USB_Host_Library/Core/Src/usbh_ctlreq.c ****   }
 1805              		.loc 1 258 5 view .LVU686
 257:./Libraries/STM32_USB_Host_Library/Core/Src/usbh_ctlreq.c ****     phost->Control.setup.b.wLength.w = 0U;
 1806              		.loc 1 257 37 is_stmt 0 view .LVU687
 1807 0010 4361     		str	r3, [r0, #20]
 1808              	.L116:
 261:./Libraries/STM32_USB_Host_Library/Core/Src/usbh_ctlreq.c **** }
 1809              		.loc 1 261 3 is_stmt 1 view .LVU688
 261:./Libraries/STM32_USB_Host_Library/Core/Src/usbh_ctlreq.c **** }
 1810              		.loc 1 261 10 is_stmt 0 view .LVU689
 1811 0012 0022     		movs	r2, #0
 1812 0014 1146     		mov	r1, r2
 1813              	.LVL143:
 261:./Libraries/STM32_USB_Host_Library/Core/Src/usbh_ctlreq.c **** }
 1814              		.loc 1 261 10 view .LVU690
 1815 0016 FFF7FEBF 		b	USBH_CtlReq
 1816              	.LVL144:
 261:./Libraries/STM32_USB_Host_Library/Core/Src/usbh_ctlreq.c **** }
 1817              		.loc 1 261 10 view .LVU691
 1818              		.cfi_endproc
 1819              	.LFE343:
 1821 001a 00BF     		.section	.text.USBH_SetInterface,"ax",%progbits
 1822              		.align	1
 1823              		.p2align 2,,3
 1824              		.global	USBH_SetInterface
ARM GAS  /tmp/ccOpRQ1g.s 			page 61


 1825              		.syntax unified
 1826              		.thumb
 1827              		.thumb_func
 1828              		.fpu fpv5-d16
 1830              	USBH_SetInterface:
 1831              	.LVL145:
 1832              	.LFB344:
 274:./Libraries/STM32_USB_Host_Library/Core/Src/usbh_ctlreq.c ****   if (phost->RequestState == CMD_SEND)
 1833              		.loc 1 274 1 is_stmt 1 view -0
 1834              		.cfi_startproc
 1835              		@ args = 0, pretend = 0, frame = 0
 1836              		@ frame_needed = 0, uses_anonymous_args = 0
 1837              		@ link register save eliminated.
 275:./Libraries/STM32_USB_Host_Library/Core/Src/usbh_ctlreq.c ****   {
 1838              		.loc 1 275 3 view .LVU693
 275:./Libraries/STM32_USB_Host_Library/Core/Src/usbh_ctlreq.c ****   {
 1839              		.loc 1 275 6 is_stmt 0 view .LVU694
 1840 0000 8378     		ldrb	r3, [r0, #2]	@ zero_extendqisi2
 1841 0002 012B     		cmp	r3, #1
 1842 0004 03D0     		beq	.L123
 286:./Libraries/STM32_USB_Host_Library/Core/Src/usbh_ctlreq.c **** }
 1843              		.loc 1 286 3 is_stmt 1 view .LVU695
 286:./Libraries/STM32_USB_Host_Library/Core/Src/usbh_ctlreq.c **** }
 1844              		.loc 1 286 10 is_stmt 0 view .LVU696
 1845 0006 0022     		movs	r2, #0
 1846              	.LVL146:
 286:./Libraries/STM32_USB_Host_Library/Core/Src/usbh_ctlreq.c **** }
 1847              		.loc 1 286 10 view .LVU697
 1848 0008 1146     		mov	r1, r2
 1849              	.LVL147:
 286:./Libraries/STM32_USB_Host_Library/Core/Src/usbh_ctlreq.c **** }
 1850              		.loc 1 286 10 view .LVU698
 1851 000a FFF7FEBF 		b	USBH_CtlReq
 1852              	.LVL148:
 1853              	.L123:
 277:./Libraries/STM32_USB_Host_Library/Core/Src/usbh_ctlreq.c ****                                            | USB_REQ_TYPE_STANDARD;
 1854              		.loc 1 277 5 is_stmt 1 view .LVU699
 280:./Libraries/STM32_USB_Host_Library/Core/Src/usbh_ctlreq.c ****     phost->Control.setup.b.wValue.w = altSetting;
 1855              		.loc 1 280 5 view .LVU700
 274:./Libraries/STM32_USB_Host_Library/Core/Src/usbh_ctlreq.c ****   if (phost->RequestState == CMD_SEND)
 1856              		.loc 1 274 1 is_stmt 0 view .LVU701
 1857 000e 10B4     		push	{r4}
 1858              	.LCFI13:
 1859              		.cfi_def_cfa_offset 4
 1860              		.cfi_offset 4, -4
 283:./Libraries/STM32_USB_Host_Library/Core/Src/usbh_ctlreq.c ****   }
 1861              		.loc 1 283 38 view .LVU702
 1862 0010 0023     		movs	r3, #0
 277:./Libraries/STM32_USB_Host_Library/Core/Src/usbh_ctlreq.c ****                                            | USB_REQ_TYPE_STANDARD;
 1863              		.loc 1 277 42 view .LVU703
 1864 0012 40F60134 		movw	r4, #2817
 281:./Libraries/STM32_USB_Host_Library/Core/Src/usbh_ctlreq.c ****     phost->Control.setup.b.wIndex.w = ep_num;
 1865              		.loc 1 281 37 view .LVU704
 1866 0016 4282     		strh	r2, [r0, #18]	@ movhi
 286:./Libraries/STM32_USB_Host_Library/Core/Src/usbh_ctlreq.c **** }
 1867              		.loc 1 286 10 view .LVU705
 1868 0018 0022     		movs	r2, #0
ARM GAS  /tmp/ccOpRQ1g.s 			page 62


 1869              	.LVL149:
 282:./Libraries/STM32_USB_Host_Library/Core/Src/usbh_ctlreq.c ****     phost->Control.setup.b.wLength.w = 0U;
 1870              		.loc 1 282 37 view .LVU706
 1871 001a 8182     		strh	r1, [r0, #20]	@ movhi
 277:./Libraries/STM32_USB_Host_Library/Core/Src/usbh_ctlreq.c ****                                            | USB_REQ_TYPE_STANDARD;
 1872              		.loc 1 277 42 view .LVU707
 1873 001c 0482     		strh	r4, [r0, #16]	@ movhi
 281:./Libraries/STM32_USB_Host_Library/Core/Src/usbh_ctlreq.c ****     phost->Control.setup.b.wIndex.w = ep_num;
 1874              		.loc 1 281 5 is_stmt 1 view .LVU708
 282:./Libraries/STM32_USB_Host_Library/Core/Src/usbh_ctlreq.c ****     phost->Control.setup.b.wLength.w = 0U;
 1875              		.loc 1 282 5 view .LVU709
 283:./Libraries/STM32_USB_Host_Library/Core/Src/usbh_ctlreq.c ****   }
 1876              		.loc 1 283 5 view .LVU710
 286:./Libraries/STM32_USB_Host_Library/Core/Src/usbh_ctlreq.c **** }
 1877              		.loc 1 286 10 is_stmt 0 view .LVU711
 1878 001e 1146     		mov	r1, r2
 1879              	.LVL150:
 287:./Libraries/STM32_USB_Host_Library/Core/Src/usbh_ctlreq.c **** 
 1880              		.loc 1 287 1 view .LVU712
 1881 0020 5DF8044B 		ldr	r4, [sp], #4
 1882              	.LCFI14:
 1883              		.cfi_restore 4
 1884              		.cfi_def_cfa_offset 0
 283:./Libraries/STM32_USB_Host_Library/Core/Src/usbh_ctlreq.c ****   }
 1885              		.loc 1 283 38 view .LVU713
 1886 0024 C382     		strh	r3, [r0, #22]	@ movhi
 286:./Libraries/STM32_USB_Host_Library/Core/Src/usbh_ctlreq.c **** }
 1887              		.loc 1 286 3 is_stmt 1 view .LVU714
 286:./Libraries/STM32_USB_Host_Library/Core/Src/usbh_ctlreq.c **** }
 1888              		.loc 1 286 10 is_stmt 0 view .LVU715
 1889 0026 FFF7FEBF 		b	USBH_CtlReq
 1890              	.LVL151:
 286:./Libraries/STM32_USB_Host_Library/Core/Src/usbh_ctlreq.c **** }
 1891              		.loc 1 286 10 view .LVU716
 1892              		.cfi_endproc
 1893              	.LFE344:
 1895 002a 00BF     		.section	.text.USBH_SetFeature,"ax",%progbits
 1896              		.align	1
 1897              		.p2align 2,,3
 1898              		.global	USBH_SetFeature
 1899              		.syntax unified
 1900              		.thumb
 1901              		.thumb_func
 1902              		.fpu fpv5-d16
 1904              	USBH_SetFeature:
 1905              	.LVL152:
 1906              	.LFB345:
 298:./Libraries/STM32_USB_Host_Library/Core/Src/usbh_ctlreq.c ****   if (phost->RequestState == CMD_SEND)
 1907              		.loc 1 298 1 is_stmt 1 view -0
 1908              		.cfi_startproc
 1909              		@ args = 0, pretend = 0, frame = 0
 1910              		@ frame_needed = 0, uses_anonymous_args = 0
 1911              		@ link register save eliminated.
 299:./Libraries/STM32_USB_Host_Library/Core/Src/usbh_ctlreq.c ****   {
 1912              		.loc 1 299 3 view .LVU718
 299:./Libraries/STM32_USB_Host_Library/Core/Src/usbh_ctlreq.c ****   {
 1913              		.loc 1 299 6 is_stmt 0 view .LVU719
ARM GAS  /tmp/ccOpRQ1g.s 			page 63


 1914 0000 8378     		ldrb	r3, [r0, #2]	@ zero_extendqisi2
 1915 0002 012B     		cmp	r3, #1
 1916 0004 05D1     		bne	.L125
 301:./Libraries/STM32_USB_Host_Library/Core/Src/usbh_ctlreq.c ****                                            | USB_REQ_TYPE_STANDARD;
 1917              		.loc 1 301 5 is_stmt 1 view .LVU720
 304:./Libraries/STM32_USB_Host_Library/Core/Src/usbh_ctlreq.c ****     phost->Control.setup.b.wValue.w = wValue;
 1918              		.loc 1 304 5 view .LVU721
 301:./Libraries/STM32_USB_Host_Library/Core/Src/usbh_ctlreq.c ****                                            | USB_REQ_TYPE_STANDARD;
 1919              		.loc 1 301 42 is_stmt 0 view .LVU722
 1920 0006 4FF44072 		mov	r2, #768
 306:./Libraries/STM32_USB_Host_Library/Core/Src/usbh_ctlreq.c ****     phost->Control.setup.b.wLength.w = 0U;
 1921              		.loc 1 306 37 view .LVU723
 1922 000a 0023     		movs	r3, #0
 305:./Libraries/STM32_USB_Host_Library/Core/Src/usbh_ctlreq.c ****     phost->Control.setup.b.wIndex.w = 0U;
 1923              		.loc 1 305 37 view .LVU724
 1924 000c 4182     		strh	r1, [r0, #18]	@ movhi
 301:./Libraries/STM32_USB_Host_Library/Core/Src/usbh_ctlreq.c ****                                            | USB_REQ_TYPE_STANDARD;
 1925              		.loc 1 301 42 view .LVU725
 1926 000e 0282     		strh	r2, [r0, #16]	@ movhi
 305:./Libraries/STM32_USB_Host_Library/Core/Src/usbh_ctlreq.c ****     phost->Control.setup.b.wIndex.w = 0U;
 1927              		.loc 1 305 5 is_stmt 1 view .LVU726
 306:./Libraries/STM32_USB_Host_Library/Core/Src/usbh_ctlreq.c ****     phost->Control.setup.b.wLength.w = 0U;
 1928              		.loc 1 306 5 view .LVU727
 307:./Libraries/STM32_USB_Host_Library/Core/Src/usbh_ctlreq.c ****   }
 1929              		.loc 1 307 5 view .LVU728
 306:./Libraries/STM32_USB_Host_Library/Core/Src/usbh_ctlreq.c ****     phost->Control.setup.b.wLength.w = 0U;
 1930              		.loc 1 306 37 is_stmt 0 view .LVU729
 1931 0010 4361     		str	r3, [r0, #20]
 1932              	.L125:
 310:./Libraries/STM32_USB_Host_Library/Core/Src/usbh_ctlreq.c **** }
 1933              		.loc 1 310 3 is_stmt 1 view .LVU730
 310:./Libraries/STM32_USB_Host_Library/Core/Src/usbh_ctlreq.c **** }
 1934              		.loc 1 310 10 is_stmt 0 view .LVU731
 1935 0012 0022     		movs	r2, #0
 1936 0014 1146     		mov	r1, r2
 1937              	.LVL153:
 310:./Libraries/STM32_USB_Host_Library/Core/Src/usbh_ctlreq.c **** }
 1938              		.loc 1 310 10 view .LVU732
 1939 0016 FFF7FEBF 		b	USBH_CtlReq
 1940              	.LVL154:
 310:./Libraries/STM32_USB_Host_Library/Core/Src/usbh_ctlreq.c **** }
 1941              		.loc 1 310 10 view .LVU733
 1942              		.cfi_endproc
 1943              	.LFE345:
 1945 001a 00BF     		.section	.text.USBH_ClrFeature,"ax",%progbits
 1946              		.align	1
 1947              		.p2align 2,,3
 1948              		.global	USBH_ClrFeature
 1949              		.syntax unified
 1950              		.thumb
 1951              		.thumb_func
 1952              		.fpu fpv5-d16
 1954              	USBH_ClrFeature:
 1955              	.LVL155:
 1956              	.LFB346:
 323:./Libraries/STM32_USB_Host_Library/Core/Src/usbh_ctlreq.c ****   if (phost->RequestState == CMD_SEND)
 1957              		.loc 1 323 1 is_stmt 1 view -0
ARM GAS  /tmp/ccOpRQ1g.s 			page 64


 1958              		.cfi_startproc
 1959              		@ args = 0, pretend = 0, frame = 0
 1960              		@ frame_needed = 0, uses_anonymous_args = 0
 1961              		@ link register save eliminated.
 324:./Libraries/STM32_USB_Host_Library/Core/Src/usbh_ctlreq.c ****   {
 1962              		.loc 1 324 3 view .LVU735
 324:./Libraries/STM32_USB_Host_Library/Core/Src/usbh_ctlreq.c ****   {
 1963              		.loc 1 324 6 is_stmt 0 view .LVU736
 1964 0000 8378     		ldrb	r3, [r0, #2]	@ zero_extendqisi2
 1965 0002 012B     		cmp	r3, #1
 1966 0004 05D1     		bne	.L127
 326:./Libraries/STM32_USB_Host_Library/Core/Src/usbh_ctlreq.c ****                                            | USB_REQ_TYPE_STANDARD;
 1967              		.loc 1 326 5 is_stmt 1 view .LVU737
 329:./Libraries/STM32_USB_Host_Library/Core/Src/usbh_ctlreq.c ****     phost->Control.setup.b.wValue.w = FEATURE_SELECTOR_ENDPOINT;
 1968              		.loc 1 329 5 view .LVU738
 330:./Libraries/STM32_USB_Host_Library/Core/Src/usbh_ctlreq.c ****     phost->Control.setup.b.wIndex.w = ep_num;
 1969              		.loc 1 330 5 view .LVU739
 326:./Libraries/STM32_USB_Host_Library/Core/Src/usbh_ctlreq.c ****                                            | USB_REQ_TYPE_STANDARD;
 1970              		.loc 1 326 42 is_stmt 0 view .LVU740
 1971 0006 4FF48172 		mov	r2, #258
 332:./Libraries/STM32_USB_Host_Library/Core/Src/usbh_ctlreq.c ****   }
 1972              		.loc 1 332 38 view .LVU741
 1973 000a 0023     		movs	r3, #0
 331:./Libraries/STM32_USB_Host_Library/Core/Src/usbh_ctlreq.c ****     phost->Control.setup.b.wLength.w = 0U;
 1974              		.loc 1 331 37 view .LVU742
 1975 000c 8182     		strh	r1, [r0, #20]	@ movhi
 326:./Libraries/STM32_USB_Host_Library/Core/Src/usbh_ctlreq.c ****                                            | USB_REQ_TYPE_STANDARD;
 1976              		.loc 1 326 42 view .LVU743
 1977 000e 0261     		str	r2, [r0, #16]
 331:./Libraries/STM32_USB_Host_Library/Core/Src/usbh_ctlreq.c ****     phost->Control.setup.b.wLength.w = 0U;
 1978              		.loc 1 331 5 is_stmt 1 view .LVU744
 332:./Libraries/STM32_USB_Host_Library/Core/Src/usbh_ctlreq.c ****   }
 1979              		.loc 1 332 5 view .LVU745
 332:./Libraries/STM32_USB_Host_Library/Core/Src/usbh_ctlreq.c ****   }
 1980              		.loc 1 332 38 is_stmt 0 view .LVU746
 1981 0010 C382     		strh	r3, [r0, #22]	@ movhi
 1982              	.L127:
 334:./Libraries/STM32_USB_Host_Library/Core/Src/usbh_ctlreq.c **** }
 1983              		.loc 1 334 3 is_stmt 1 view .LVU747
 334:./Libraries/STM32_USB_Host_Library/Core/Src/usbh_ctlreq.c **** }
 1984              		.loc 1 334 10 is_stmt 0 view .LVU748
 1985 0012 0022     		movs	r2, #0
 1986 0014 1146     		mov	r1, r2
 1987              	.LVL156:
 334:./Libraries/STM32_USB_Host_Library/Core/Src/usbh_ctlreq.c **** }
 1988              		.loc 1 334 10 view .LVU749
 1989 0016 FFF7FEBF 		b	USBH_CtlReq
 1990              	.LVL157:
 334:./Libraries/STM32_USB_Host_Library/Core/Src/usbh_ctlreq.c **** }
 1991              		.loc 1 334 10 view .LVU750
 1992              		.cfi_endproc
 1993              	.LFE346:
 1995 001a 00BF     		.text
 1996              	.Letext0:
 1997              		.file 2 "/usr/lib/gcc/arm-none-eabi/9.2.1/include/stdint.h"
 1998              		.file 3 "./Libraries/CMSIS/Core/Include/core_cm7.h"
 1999              		.file 4 "./Libraries/CMSIS/Device/ST/STM32H7xx/Include/system_stm32h7xx.h"
ARM GAS  /tmp/ccOpRQ1g.s 			page 65


 2000              		.file 5 "/usr/lib/gcc/arm-none-eabi/9.2.1/include/stddef.h"
 2001              		.file 6 "/usr/include/newlib/sys/_types.h"
 2002              		.file 7 "/usr/include/newlib/sys/reent.h"
 2003              		.file 8 "/usr/include/newlib/sys/lock.h"
 2004              		.file 9 "/usr/include/newlib/math.h"
 2005              		.file 10 "./Libraries/STM32H7xx_HAL_Driver/Inc/stm32h7xx_hal_def.h"
 2006              		.file 11 "./Libraries/STM32H7xx_HAL_Driver/Inc/stm32h7xx_hal_flash.h"
 2007              		.file 12 "./Libraries/STM32H7xx_HAL_Driver/Inc/stm32h7xx_hal_uart.h"
 2008              		.file 13 "./Libraries/STM32H7xx_HAL_Driver/Inc/stm32h7xx_hal.h"
 2009              		.file 14 "/usr/include/newlib/stdlib.h"
 2010              		.file 15 "./Libraries/FreeRTOS/Source/CMSIS_RTOS/cmsis_os2.h"
 2011              		.file 16 "./Libraries/STM32_USB_Host_Library/Core/Inc/usbh_def.h"
 2012              		.file 17 "./Libraries/STM32_USB_Host_Library/Core/Inc/usbh_ctlreq.h"
 2013              		.file 18 "./Libraries/STM32_USB_Host_Library/Core/Inc/usbh_core.h"
 2014              		.file 19 "./Libraries/STM32_USB_Host_Library/Core/Inc/usbh_ioreq.h"
 2015              		.file 20 "./Libraries/STM32_USB_Host_Library/Core/Inc/usbh_pipes.h"
ARM GAS  /tmp/ccOpRQ1g.s 			page 66


DEFINED SYMBOLS
                            *ABS*:0000000000000000 usbh_ctlreq.c
     /tmp/ccOpRQ1g.s:17     .text.USBH_GetNextDesc:0000000000000000 $t
     /tmp/ccOpRQ1g.s:26     .text.USBH_GetNextDesc:0000000000000000 USBH_GetNextDesc
     /tmp/ccOpRQ1g.s:56     .text.USBH_CtlReq:0000000000000000 $t
     /tmp/ccOpRQ1g.s:64     .text.USBH_CtlReq:0000000000000000 USBH_CtlReq
     /tmp/ccOpRQ1g.s:118    .text.USBH_CtlReq:000000000000001c $d
     /tmp/ccOpRQ1g.s:869    .text.USBH_GetDescriptor:0000000000000000 $t
     /tmp/ccOpRQ1g.s:877    .text.USBH_GetDescriptor:0000000000000000 USBH_GetDescriptor
     /tmp/ccOpRQ1g.s:952    .text.USBH_Get_DevDesc:0000000000000000 $t
     /tmp/ccOpRQ1g.s:960    .text.USBH_Get_DevDesc:0000000000000000 USBH_Get_DevDesc
     /tmp/ccOpRQ1g.s:1132   .text.USBH_Get_DevDesc:000000000000009c $d
     /tmp/ccOpRQ1g.s:1137   .text.USBH_Get_CfgDesc:0000000000000000 $t
     /tmp/ccOpRQ1g.s:1145   .text.USBH_Get_CfgDesc:0000000000000000 USBH_Get_CfgDesc
     /tmp/ccOpRQ1g.s:1533   .text.USBH_Get_CfgDesc:000000000000014c $d
     /tmp/ccOpRQ1g.s:1540   .text.USBH_Get_StringDesc:0000000000000000 $t
     /tmp/ccOpRQ1g.s:1548   .text.USBH_Get_StringDesc:0000000000000000 USBH_Get_StringDesc
     /tmp/ccOpRQ1g.s:1722   .text.USBH_SetAddress:0000000000000000 $t
     /tmp/ccOpRQ1g.s:1730   .text.USBH_SetAddress:0000000000000000 USBH_SetAddress
     /tmp/ccOpRQ1g.s:1772   .text.USBH_SetCfg:0000000000000000 $t
     /tmp/ccOpRQ1g.s:1780   .text.USBH_SetCfg:0000000000000000 USBH_SetCfg
     /tmp/ccOpRQ1g.s:1822   .text.USBH_SetInterface:0000000000000000 $t
     /tmp/ccOpRQ1g.s:1830   .text.USBH_SetInterface:0000000000000000 USBH_SetInterface
     /tmp/ccOpRQ1g.s:1896   .text.USBH_SetFeature:0000000000000000 $t
     /tmp/ccOpRQ1g.s:1904   .text.USBH_SetFeature:0000000000000000 USBH_SetFeature
     /tmp/ccOpRQ1g.s:1946   .text.USBH_ClrFeature:0000000000000000 $t
     /tmp/ccOpRQ1g.s:1954   .text.USBH_ClrFeature:0000000000000000 USBH_ClrFeature
     /tmp/ccOpRQ1g.s:129    .text.USBH_CtlReq:0000000000000027 $d
     /tmp/ccOpRQ1g.s:129    .text.USBH_CtlReq:0000000000000028 $t

UNDEFINED SYMBOLS
osMessageQueuePut
USBH_LL_GetURBState
USBH_CtlSendData
USBH_CtlReceiveData
USBH_CtlSendSetup
USBH_FreePipe
