ARM GAS  /tmp/ccvHxJMg.s 			page 1


   1              		.cpu cortex-m7
   2              		.eabi_attribute 28, 1
   3              		.eabi_attribute 20, 1
   4              		.eabi_attribute 21, 1
   5              		.eabi_attribute 23, 3
   6              		.eabi_attribute 24, 1
   7              		.eabi_attribute 25, 1
   8              		.eabi_attribute 26, 1
   9              		.eabi_attribute 30, 6
  10              		.eabi_attribute 34, 1
  11              		.eabi_attribute 18, 4
  12              		.file	"user_diskio.c"
  13              		.text
  14              	.Ltext0:
  15              		.cfi_sections	.debug_frame
  16              		.section	.data.Stat,"aw"
  19              	Stat:
  20 0000 01       		.byte	1
  21              		.global	USER_Driver
  22              		.section	.data.USER_Driver,"aw"
  23              		.align	2
  26              	USER_Driver:
  27 0000 00000000 		.word	USER_initialize
  28 0004 00000000 		.word	USER_status
  29 0008 00000000 		.word	USER_read
  30 000c 00000000 		.word	USER_write
  31 0010 00000000 		.word	USER_ioctl
  32              		.section	.text.USER_initialize,"ax",%progbits
  33              		.align	1
  34              		.global	USER_initialize
  35              		.arch armv7e-m
  36              		.syntax unified
  37              		.thumb
  38              		.thumb_func
  39              		.fpu fpv5-d16
  41              	USER_initialize:
  42              	.LFB335:
  43              		.file 1 "./User/code/Src/user_diskio.c"
   1:./User/code/Src/user_diskio.c **** /* USER CODE BEGIN Header */
   2:./User/code/Src/user_diskio.c **** /**
   3:./User/code/Src/user_diskio.c ****  ******************************************************************************
   4:./User/code/Src/user_diskio.c ****   * @file    user_diskio.c
   5:./User/code/Src/user_diskio.c ****   * @brief   This file includes a diskio driver skeleton to be completed by the user.
   6:./User/code/Src/user_diskio.c ****   ******************************************************************************
   7:./User/code/Src/user_diskio.c ****   * @attention
   8:./User/code/Src/user_diskio.c ****   *
   9:./User/code/Src/user_diskio.c ****   * <h2><center>&copy; Copyright (c) 2021 STMicroelectronics.
  10:./User/code/Src/user_diskio.c ****   * All rights reserved.</center></h2>
  11:./User/code/Src/user_diskio.c ****   *
  12:./User/code/Src/user_diskio.c ****   * This software component is licensed by ST under Ultimate Liberty license
  13:./User/code/Src/user_diskio.c ****   * SLA0044, the "License"; You may not use this file except in compliance with
  14:./User/code/Src/user_diskio.c ****   * the License. You may obtain a copy of the License at:
  15:./User/code/Src/user_diskio.c ****   *                             www.st.com/SLA0044
  16:./User/code/Src/user_diskio.c ****   *
  17:./User/code/Src/user_diskio.c ****   ******************************************************************************
  18:./User/code/Src/user_diskio.c ****   */
  19:./User/code/Src/user_diskio.c ****  /* USER CODE END Header */
ARM GAS  /tmp/ccvHxJMg.s 			page 2


  20:./User/code/Src/user_diskio.c **** 
  21:./User/code/Src/user_diskio.c **** #ifdef USE_OBSOLETE_USER_CODE_SECTION_0
  22:./User/code/Src/user_diskio.c **** /*
  23:./User/code/Src/user_diskio.c ****  * Warning: the user section 0 is no more in use (starting from CubeMx version 4.16.0)
  24:./User/code/Src/user_diskio.c ****  * To be suppressed in the future.
  25:./User/code/Src/user_diskio.c ****  * Kept to ensure backward compatibility with previous CubeMx versions when
  26:./User/code/Src/user_diskio.c ****  * migrating projects.
  27:./User/code/Src/user_diskio.c ****  * User code previously added there should be copied in the new user sections before
  28:./User/code/Src/user_diskio.c ****  * the section contents can be deleted.
  29:./User/code/Src/user_diskio.c ****  */
  30:./User/code/Src/user_diskio.c **** /* USER CODE BEGIN 0 */
  31:./User/code/Src/user_diskio.c **** /* USER CODE END 0 */
  32:./User/code/Src/user_diskio.c **** #endif
  33:./User/code/Src/user_diskio.c **** 
  34:./User/code/Src/user_diskio.c **** /* USER CODE BEGIN DECL */
  35:./User/code/Src/user_diskio.c **** 
  36:./User/code/Src/user_diskio.c **** /* Includes ------------------------------------------------------------------*/
  37:./User/code/Src/user_diskio.c **** #include <string.h>
  38:./User/code/Src/user_diskio.c **** #include "ff_gen_drv.h"
  39:./User/code/Src/user_diskio.c **** 
  40:./User/code/Src/user_diskio.c **** /* Private typedef -----------------------------------------------------------*/
  41:./User/code/Src/user_diskio.c **** /* Private define ------------------------------------------------------------*/
  42:./User/code/Src/user_diskio.c **** 
  43:./User/code/Src/user_diskio.c **** /* Private variables ---------------------------------------------------------*/
  44:./User/code/Src/user_diskio.c **** /* Disk status */
  45:./User/code/Src/user_diskio.c **** static volatile DSTATUS Stat = STA_NOINIT;
  46:./User/code/Src/user_diskio.c **** 
  47:./User/code/Src/user_diskio.c **** /* USER CODE END DECL */
  48:./User/code/Src/user_diskio.c **** 
  49:./User/code/Src/user_diskio.c **** /* Private function prototypes -----------------------------------------------*/
  50:./User/code/Src/user_diskio.c **** DSTATUS USER_initialize (BYTE pdrv);
  51:./User/code/Src/user_diskio.c **** DSTATUS USER_status (BYTE pdrv);
  52:./User/code/Src/user_diskio.c **** DRESULT USER_read (BYTE pdrv, BYTE *buff, DWORD sector, UINT count);
  53:./User/code/Src/user_diskio.c **** #if _USE_WRITE == 1
  54:./User/code/Src/user_diskio.c ****   DRESULT USER_write (BYTE pdrv, const BYTE *buff, DWORD sector, UINT count);
  55:./User/code/Src/user_diskio.c **** #endif /* _USE_WRITE == 1 */
  56:./User/code/Src/user_diskio.c **** #if _USE_IOCTL == 1
  57:./User/code/Src/user_diskio.c ****   DRESULT USER_ioctl (BYTE pdrv, BYTE cmd, void *buff);
  58:./User/code/Src/user_diskio.c **** #endif /* _USE_IOCTL == 1 */
  59:./User/code/Src/user_diskio.c **** 
  60:./User/code/Src/user_diskio.c **** Diskio_drvTypeDef  USER_Driver =
  61:./User/code/Src/user_diskio.c **** {
  62:./User/code/Src/user_diskio.c ****   USER_initialize,
  63:./User/code/Src/user_diskio.c ****   USER_status,
  64:./User/code/Src/user_diskio.c ****   USER_read,
  65:./User/code/Src/user_diskio.c **** #if  _USE_WRITE
  66:./User/code/Src/user_diskio.c ****   USER_write,
  67:./User/code/Src/user_diskio.c **** #endif  /* _USE_WRITE == 1 */
  68:./User/code/Src/user_diskio.c **** #if  _USE_IOCTL == 1
  69:./User/code/Src/user_diskio.c ****   USER_ioctl,
  70:./User/code/Src/user_diskio.c **** #endif /* _USE_IOCTL == 1 */
  71:./User/code/Src/user_diskio.c **** };
  72:./User/code/Src/user_diskio.c **** 
  73:./User/code/Src/user_diskio.c **** /* Private functions ---------------------------------------------------------*/
  74:./User/code/Src/user_diskio.c **** 
  75:./User/code/Src/user_diskio.c **** /**
  76:./User/code/Src/user_diskio.c ****   * @brief  Initializes a Drive
ARM GAS  /tmp/ccvHxJMg.s 			page 3


  77:./User/code/Src/user_diskio.c ****   * @param  pdrv: Physical drive number (0..)
  78:./User/code/Src/user_diskio.c ****   * @retval DSTATUS: Operation status
  79:./User/code/Src/user_diskio.c ****   */
  80:./User/code/Src/user_diskio.c **** DSTATUS USER_initialize (
  81:./User/code/Src/user_diskio.c **** 	BYTE pdrv           /* Physical drive nmuber to identify the drive */
  82:./User/code/Src/user_diskio.c **** )
  83:./User/code/Src/user_diskio.c **** {
  44              		.loc 1 83 1
  45              		.cfi_startproc
  46              		@ args = 0, pretend = 0, frame = 8
  47              		@ frame_needed = 1, uses_anonymous_args = 0
  48              		@ link register save eliminated.
  49 0000 80B4     		push	{r7}
  50              	.LCFI0:
  51              		.cfi_def_cfa_offset 4
  52              		.cfi_offset 7, -4
  53 0002 83B0     		sub	sp, sp, #12
  54              	.LCFI1:
  55              		.cfi_def_cfa_offset 16
  56 0004 00AF     		add	r7, sp, #0
  57              	.LCFI2:
  58              		.cfi_def_cfa_register 7
  59 0006 0346     		mov	r3, r0
  60 0008 FB71     		strb	r3, [r7, #7]
  84:./User/code/Src/user_diskio.c ****   /* USER CODE BEGIN INIT */
  85:./User/code/Src/user_diskio.c ****     Stat = STA_NOINIT;
  61              		.loc 1 85 10
  62 000a 064B     		ldr	r3, .L3
  63 000c 0122     		movs	r2, #1
  64 000e 1A70     		strb	r2, [r3]
  86:./User/code/Src/user_diskio.c ****     return Stat;
  65              		.loc 1 86 12
  66 0010 044B     		ldr	r3, .L3
  67 0012 1B78     		ldrb	r3, [r3]
  68 0014 DBB2     		uxtb	r3, r3
  87:./User/code/Src/user_diskio.c ****   /* USER CODE END INIT */
  88:./User/code/Src/user_diskio.c **** }
  69              		.loc 1 88 1
  70 0016 1846     		mov	r0, r3
  71 0018 0C37     		adds	r7, r7, #12
  72              	.LCFI3:
  73              		.cfi_def_cfa_offset 4
  74 001a BD46     		mov	sp, r7
  75              	.LCFI4:
  76              		.cfi_def_cfa_register 13
  77              		@ sp needed
  78 001c 5DF8047B 		ldr	r7, [sp], #4
  79              	.LCFI5:
  80              		.cfi_restore 7
  81              		.cfi_def_cfa_offset 0
  82 0020 7047     		bx	lr
  83              	.L4:
  84 0022 00BF     		.align	2
  85              	.L3:
  86 0024 00000000 		.word	Stat
  87              		.cfi_endproc
  88              	.LFE335:
ARM GAS  /tmp/ccvHxJMg.s 			page 4


  90              		.section	.text.USER_status,"ax",%progbits
  91              		.align	1
  92              		.global	USER_status
  93              		.syntax unified
  94              		.thumb
  95              		.thumb_func
  96              		.fpu fpv5-d16
  98              	USER_status:
  99              	.LFB336:
  89:./User/code/Src/user_diskio.c **** 
  90:./User/code/Src/user_diskio.c **** /**
  91:./User/code/Src/user_diskio.c ****   * @brief  Gets Disk Status
  92:./User/code/Src/user_diskio.c ****   * @param  pdrv: Physical drive number (0..)
  93:./User/code/Src/user_diskio.c ****   * @retval DSTATUS: Operation status
  94:./User/code/Src/user_diskio.c ****   */
  95:./User/code/Src/user_diskio.c **** DSTATUS USER_status (
  96:./User/code/Src/user_diskio.c **** 	BYTE pdrv       /* Physical drive number to identify the drive */
  97:./User/code/Src/user_diskio.c **** )
  98:./User/code/Src/user_diskio.c **** {
 100              		.loc 1 98 1
 101              		.cfi_startproc
 102              		@ args = 0, pretend = 0, frame = 8
 103              		@ frame_needed = 1, uses_anonymous_args = 0
 104              		@ link register save eliminated.
 105 0000 80B4     		push	{r7}
 106              	.LCFI6:
 107              		.cfi_def_cfa_offset 4
 108              		.cfi_offset 7, -4
 109 0002 83B0     		sub	sp, sp, #12
 110              	.LCFI7:
 111              		.cfi_def_cfa_offset 16
 112 0004 00AF     		add	r7, sp, #0
 113              	.LCFI8:
 114              		.cfi_def_cfa_register 7
 115 0006 0346     		mov	r3, r0
 116 0008 FB71     		strb	r3, [r7, #7]
  99:./User/code/Src/user_diskio.c ****   /* USER CODE BEGIN STATUS */
 100:./User/code/Src/user_diskio.c ****     Stat = STA_NOINIT;
 117              		.loc 1 100 10
 118 000a 064B     		ldr	r3, .L7
 119 000c 0122     		movs	r2, #1
 120 000e 1A70     		strb	r2, [r3]
 101:./User/code/Src/user_diskio.c ****     return Stat;
 121              		.loc 1 101 12
 122 0010 044B     		ldr	r3, .L7
 123 0012 1B78     		ldrb	r3, [r3]
 124 0014 DBB2     		uxtb	r3, r3
 102:./User/code/Src/user_diskio.c ****   /* USER CODE END STATUS */
 103:./User/code/Src/user_diskio.c **** }
 125              		.loc 1 103 1
 126 0016 1846     		mov	r0, r3
 127 0018 0C37     		adds	r7, r7, #12
 128              	.LCFI9:
 129              		.cfi_def_cfa_offset 4
 130 001a BD46     		mov	sp, r7
 131              	.LCFI10:
 132              		.cfi_def_cfa_register 13
ARM GAS  /tmp/ccvHxJMg.s 			page 5


 133              		@ sp needed
 134 001c 5DF8047B 		ldr	r7, [sp], #4
 135              	.LCFI11:
 136              		.cfi_restore 7
 137              		.cfi_def_cfa_offset 0
 138 0020 7047     		bx	lr
 139              	.L8:
 140 0022 00BF     		.align	2
 141              	.L7:
 142 0024 00000000 		.word	Stat
 143              		.cfi_endproc
 144              	.LFE336:
 146              		.section	.text.USER_read,"ax",%progbits
 147              		.align	1
 148              		.global	USER_read
 149              		.syntax unified
 150              		.thumb
 151              		.thumb_func
 152              		.fpu fpv5-d16
 154              	USER_read:
 155              	.LFB337:
 104:./User/code/Src/user_diskio.c **** 
 105:./User/code/Src/user_diskio.c **** /**
 106:./User/code/Src/user_diskio.c ****   * @brief  Reads Sector(s)
 107:./User/code/Src/user_diskio.c ****   * @param  pdrv: Physical drive number (0..)
 108:./User/code/Src/user_diskio.c ****   * @param  *buff: Data buffer to store read data
 109:./User/code/Src/user_diskio.c ****   * @param  sector: Sector address (LBA)
 110:./User/code/Src/user_diskio.c ****   * @param  count: Number of sectors to read (1..128)
 111:./User/code/Src/user_diskio.c ****   * @retval DRESULT: Operation result
 112:./User/code/Src/user_diskio.c ****   */
 113:./User/code/Src/user_diskio.c **** DRESULT USER_read (
 114:./User/code/Src/user_diskio.c **** 	BYTE pdrv,      /* Physical drive nmuber to identify the drive */
 115:./User/code/Src/user_diskio.c **** 	BYTE *buff,     /* Data buffer to store read data */
 116:./User/code/Src/user_diskio.c **** 	DWORD sector,   /* Sector address in LBA */
 117:./User/code/Src/user_diskio.c **** 	UINT count      /* Number of sectors to read */
 118:./User/code/Src/user_diskio.c **** )
 119:./User/code/Src/user_diskio.c **** {
 156              		.loc 1 119 1
 157              		.cfi_startproc
 158              		@ args = 0, pretend = 0, frame = 16
 159              		@ frame_needed = 1, uses_anonymous_args = 0
 160              		@ link register save eliminated.
 161 0000 80B4     		push	{r7}
 162              	.LCFI12:
 163              		.cfi_def_cfa_offset 4
 164              		.cfi_offset 7, -4
 165 0002 85B0     		sub	sp, sp, #20
 166              	.LCFI13:
 167              		.cfi_def_cfa_offset 24
 168 0004 00AF     		add	r7, sp, #0
 169              	.LCFI14:
 170              		.cfi_def_cfa_register 7
 171 0006 B960     		str	r1, [r7, #8]
 172 0008 7A60     		str	r2, [r7, #4]
 173 000a 3B60     		str	r3, [r7]
 174 000c 0346     		mov	r3, r0
 175 000e FB73     		strb	r3, [r7, #15]
ARM GAS  /tmp/ccvHxJMg.s 			page 6


 120:./User/code/Src/user_diskio.c ****   /* USER CODE BEGIN READ */
 121:./User/code/Src/user_diskio.c ****     return RES_OK;
 176              		.loc 1 121 12
 177 0010 0023     		movs	r3, #0
 122:./User/code/Src/user_diskio.c ****   /* USER CODE END READ */
 123:./User/code/Src/user_diskio.c **** }
 178              		.loc 1 123 1
 179 0012 1846     		mov	r0, r3
 180 0014 1437     		adds	r7, r7, #20
 181              	.LCFI15:
 182              		.cfi_def_cfa_offset 4
 183 0016 BD46     		mov	sp, r7
 184              	.LCFI16:
 185              		.cfi_def_cfa_register 13
 186              		@ sp needed
 187 0018 5DF8047B 		ldr	r7, [sp], #4
 188              	.LCFI17:
 189              		.cfi_restore 7
 190              		.cfi_def_cfa_offset 0
 191 001c 7047     		bx	lr
 192              		.cfi_endproc
 193              	.LFE337:
 195              		.section	.text.USER_write,"ax",%progbits
 196              		.align	1
 197              		.global	USER_write
 198              		.syntax unified
 199              		.thumb
 200              		.thumb_func
 201              		.fpu fpv5-d16
 203              	USER_write:
 204              	.LFB338:
 124:./User/code/Src/user_diskio.c **** 
 125:./User/code/Src/user_diskio.c **** /**
 126:./User/code/Src/user_diskio.c ****   * @brief  Writes Sector(s)
 127:./User/code/Src/user_diskio.c ****   * @param  pdrv: Physical drive number (0..)
 128:./User/code/Src/user_diskio.c ****   * @param  *buff: Data to be written
 129:./User/code/Src/user_diskio.c ****   * @param  sector: Sector address (LBA)
 130:./User/code/Src/user_diskio.c ****   * @param  count: Number of sectors to write (1..128)
 131:./User/code/Src/user_diskio.c ****   * @retval DRESULT: Operation result
 132:./User/code/Src/user_diskio.c ****   */
 133:./User/code/Src/user_diskio.c **** #if _USE_WRITE == 1
 134:./User/code/Src/user_diskio.c **** DRESULT USER_write (
 135:./User/code/Src/user_diskio.c **** 	BYTE pdrv,          /* Physical drive nmuber to identify the drive */
 136:./User/code/Src/user_diskio.c **** 	const BYTE *buff,   /* Data to be written */
 137:./User/code/Src/user_diskio.c **** 	DWORD sector,       /* Sector address in LBA */
 138:./User/code/Src/user_diskio.c **** 	UINT count          /* Number of sectors to write */
 139:./User/code/Src/user_diskio.c **** )
 140:./User/code/Src/user_diskio.c **** {
 205              		.loc 1 140 1
 206              		.cfi_startproc
 207              		@ args = 0, pretend = 0, frame = 16
 208              		@ frame_needed = 1, uses_anonymous_args = 0
 209              		@ link register save eliminated.
 210 0000 80B4     		push	{r7}
 211              	.LCFI18:
 212              		.cfi_def_cfa_offset 4
 213              		.cfi_offset 7, -4
ARM GAS  /tmp/ccvHxJMg.s 			page 7


 214 0002 85B0     		sub	sp, sp, #20
 215              	.LCFI19:
 216              		.cfi_def_cfa_offset 24
 217 0004 00AF     		add	r7, sp, #0
 218              	.LCFI20:
 219              		.cfi_def_cfa_register 7
 220 0006 B960     		str	r1, [r7, #8]
 221 0008 7A60     		str	r2, [r7, #4]
 222 000a 3B60     		str	r3, [r7]
 223 000c 0346     		mov	r3, r0
 224 000e FB73     		strb	r3, [r7, #15]
 141:./User/code/Src/user_diskio.c ****   /* USER CODE BEGIN WRITE */
 142:./User/code/Src/user_diskio.c ****   /* USER CODE HERE */
 143:./User/code/Src/user_diskio.c ****     return RES_OK;
 225              		.loc 1 143 12
 226 0010 0023     		movs	r3, #0
 144:./User/code/Src/user_diskio.c ****   /* USER CODE END WRITE */
 145:./User/code/Src/user_diskio.c **** }
 227              		.loc 1 145 1
 228 0012 1846     		mov	r0, r3
 229 0014 1437     		adds	r7, r7, #20
 230              	.LCFI21:
 231              		.cfi_def_cfa_offset 4
 232 0016 BD46     		mov	sp, r7
 233              	.LCFI22:
 234              		.cfi_def_cfa_register 13
 235              		@ sp needed
 236 0018 5DF8047B 		ldr	r7, [sp], #4
 237              	.LCFI23:
 238              		.cfi_restore 7
 239              		.cfi_def_cfa_offset 0
 240 001c 7047     		bx	lr
 241              		.cfi_endproc
 242              	.LFE338:
 244              		.section	.text.USER_ioctl,"ax",%progbits
 245              		.align	1
 246              		.global	USER_ioctl
 247              		.syntax unified
 248              		.thumb
 249              		.thumb_func
 250              		.fpu fpv5-d16
 252              	USER_ioctl:
 253              	.LFB339:
 146:./User/code/Src/user_diskio.c **** #endif /* _USE_WRITE == 1 */
 147:./User/code/Src/user_diskio.c **** 
 148:./User/code/Src/user_diskio.c **** /**
 149:./User/code/Src/user_diskio.c ****   * @brief  I/O control operation
 150:./User/code/Src/user_diskio.c ****   * @param  pdrv: Physical drive number (0..)
 151:./User/code/Src/user_diskio.c ****   * @param  cmd: Control code
 152:./User/code/Src/user_diskio.c ****   * @param  *buff: Buffer to send/receive control data
 153:./User/code/Src/user_diskio.c ****   * @retval DRESULT: Operation result
 154:./User/code/Src/user_diskio.c ****   */
 155:./User/code/Src/user_diskio.c **** #if _USE_IOCTL == 1
 156:./User/code/Src/user_diskio.c **** DRESULT USER_ioctl (
 157:./User/code/Src/user_diskio.c **** 	BYTE pdrv,      /* Physical drive nmuber (0..) */
 158:./User/code/Src/user_diskio.c **** 	BYTE cmd,       /* Control code */
 159:./User/code/Src/user_diskio.c **** 	void *buff      /* Buffer to send/receive control data */
ARM GAS  /tmp/ccvHxJMg.s 			page 8


 160:./User/code/Src/user_diskio.c **** )
 161:./User/code/Src/user_diskio.c **** {
 254              		.loc 1 161 1
 255              		.cfi_startproc
 256              		@ args = 0, pretend = 0, frame = 16
 257              		@ frame_needed = 1, uses_anonymous_args = 0
 258              		@ link register save eliminated.
 259 0000 80B4     		push	{r7}
 260              	.LCFI24:
 261              		.cfi_def_cfa_offset 4
 262              		.cfi_offset 7, -4
 263 0002 85B0     		sub	sp, sp, #20
 264              	.LCFI25:
 265              		.cfi_def_cfa_offset 24
 266 0004 00AF     		add	r7, sp, #0
 267              	.LCFI26:
 268              		.cfi_def_cfa_register 7
 269 0006 0346     		mov	r3, r0
 270 0008 3A60     		str	r2, [r7]
 271 000a FB71     		strb	r3, [r7, #7]
 272 000c 0B46     		mov	r3, r1
 273 000e BB71     		strb	r3, [r7, #6]
 162:./User/code/Src/user_diskio.c ****   /* USER CODE BEGIN IOCTL */
 163:./User/code/Src/user_diskio.c ****     DRESULT res = RES_ERROR;
 274              		.loc 1 163 13
 275 0010 0123     		movs	r3, #1
 276 0012 FB73     		strb	r3, [r7, #15]
 164:./User/code/Src/user_diskio.c ****     return res;
 277              		.loc 1 164 12
 278 0014 FB7B     		ldrb	r3, [r7, #15]	@ zero_extendqisi2
 165:./User/code/Src/user_diskio.c ****   /* USER CODE END IOCTL */
 166:./User/code/Src/user_diskio.c **** }
 279              		.loc 1 166 1
 280 0016 1846     		mov	r0, r3
 281 0018 1437     		adds	r7, r7, #20
 282              	.LCFI27:
 283              		.cfi_def_cfa_offset 4
 284 001a BD46     		mov	sp, r7
 285              	.LCFI28:
 286              		.cfi_def_cfa_register 13
 287              		@ sp needed
 288 001c 5DF8047B 		ldr	r7, [sp], #4
 289              	.LCFI29:
 290              		.cfi_restore 7
 291              		.cfi_def_cfa_offset 0
 292 0020 7047     		bx	lr
 293              		.cfi_endproc
 294              	.LFE339:
 296              		.text
 297              	.Letext0:
 298              		.file 2 "/usr/lib/gcc/arm-none-eabi/9.2.1/include/stddef.h"
 299              		.file 3 "/usr/include/newlib/sys/_types.h"
 300              		.file 4 "/usr/include/newlib/sys/reent.h"
 301              		.file 5 "/usr/include/newlib/sys/lock.h"
 302              		.file 6 "./Libraries/FatFs/Inc/integer.h"
 303              		.file 7 "./Libraries/FatFs/Inc/diskio.h"
 304              		.file 8 "/usr/lib/gcc/arm-none-eabi/9.2.1/include/stdint.h"
ARM GAS  /tmp/ccvHxJMg.s 			page 9


 305              		.file 9 "./Libraries/CMSIS/Core/Include/core_cm7.h"
 306              		.file 10 "./Libraries/CMSIS/Device/ST/STM32H7xx/Include/system_stm32h7xx.h"
 307              		.file 11 "/usr/include/newlib/math.h"
 308              		.file 12 "./Libraries/STM32H7xx_HAL_Driver/Inc/stm32h7xx_hal_def.h"
 309              		.file 13 "./Libraries/STM32H7xx_HAL_Driver/Inc/stm32h7xx_hal_flash.h"
 310              		.file 14 "./Libraries/STM32H7xx_HAL_Driver/Inc/stm32h7xx_hal_uart.h"
 311              		.file 15 "./Libraries/STM32H7xx_HAL_Driver/Inc/stm32h7xx_hal.h"
 312              		.file 16 "./Libraries/FatFs/Inc/ff_gen_drv.h"
ARM GAS  /tmp/ccvHxJMg.s 			page 10

